((dp0
S'arm_dbg_args'
p1
S'-via:"c:\\Users\\dreambit\\Documents\\memorygame\\build_memorygame_vc10\\memorygame_vc10_arm_debug.via" -qemu'
p2
sS'game-icf'
p3
S''
p4
sS'dist'
p5
NsS'module_path_append'
p6
NsS'global_path'
p7
S'c:\\users\\dreambit\\documents'
p8
sS'system_path'
p9
S'd:\\marmalade\\6.1\\s3e\\makefile_builder'
p10
sS'use_prebuilt'
p11
NsS'arm_rel_rtsm_args'
p12
S'-via:"c:\\Users\\dreambit\\Documents\\memorygame\\build_memorygame_vc10\\memorygame_vc10_arm_release.via" -qemu'
p13
sS'amd64'
p14
NsS'debug'
p15
NsS'line-width'
p16
I80
sS'gcc_dbg_args'
p17
S'-via:"c:\\Users\\dreambit\\Documents\\memorygame\\build_memorygame_vc10\\memorygame_vc10_gcc_debug.via" -qemu'
p18
sS'x86_dbg_exe'
p19
S'd:/marmalade/6.1/s3e\\win32\\s3e_simulator_debug.exe'
p20
sS'disable-runtime-checks'
p21
NsS'no-make'
p22
NsS'optimise-size'
p23
NsS'output-name-debug'
p24
g4
sS'arm-fpu'
p25
g4
sS'psp'
p26
NsS'proj_name'
p27
S'memorygame_vc10'
p28
sS'rvct-version'
p29
S'none'
p30
sS'compiler'
p31
g4
sS'execute'
p32
NsS'compile-static'
p33
NsS'msvc-project'
p34
I01
sS'buildenv'
p35
g4
sS'release'
p36
NsS'module_path'
p37
NsS'use-release-std-libs'
p38
NsS'using_perforce'
p39
I00
sS'mips-s3e'
p40
NsS'shared-arm-lib'
p41
NsS'arm-cpu'
p42
g4
sS'compile-thumb'
p43
NsS'no-ide'
p44
NsS'msvc-version'
p45
S'6.0'
p46
sS'arm'
p47
NsS'builddir'
p48
g4
sS'compile-debug-as-release'
p49
I0
sS'brief'
p50
NsS'dll'
p51
NsS'version'
p52
NsS'ccache'
p53
I0
sS'offline'
p54
NsS'ios-version'
p55
g4
sS'jobs'
p56
I0
sS'linkflags'
p57
NsS'quick'
p58
NsS'gcc_rel_rtsm_args'
p59
S'-via:"c:\\Users\\dreambit\\Documents\\memorygame\\build_memorygame_vc10\\memorygame_vc10_gcc_release.via" -qemu'
p60
sS'done_defaults'
p61
I1
sS'path'
p62
NsS's3e-data-dir'
p63
S'c:/Users/dreambit/Documents/memorygame\\data'
p64
sS'enable-exceptions'
p65
NsS'osx-dll'
p66
NsS'extension'
p67
g4
sS'no-vc6'
p68
NsS'non-interactive'
p69
NsS'win32-console'
p70
NsS'nds'
p71
NsS'dist-format'
p72
g4
sS's3e-force-arch'
p73
NsS'dump_defines'
p74
NsS'verbose'
p75
I0
sS'psp-minis'
p76
NsS'gcc-version'
p77
g4
sS'x86_dbg_args'
p78
S'-via:"c:\\Users\\dreambit\\Documents\\memorygame\\build_memorygame_vc10\\memorygame_vc10_debug.via"'
p79
sS'arm-debugger'
p80
g4
sS'use_temp_extension'
p81
NsS'log'
p82
NsS'no-strip'
p83
NsS'rebuild'
p84
NsS'win32-simulator-dll'
p85
NsS'strict'
p86
NsS'mips_dbg_args'
p87
S'../../tools/DeployTool/DeployTool.exe --dir "c:\\Users\\dreambit\\Documents\\memorygame\\build_memorygame_vc10"'
p88
sS'enable-global-path'
p89
NsS'iphone'
p90
NsS'cflags'
p91
NsS'dist-dir'
p92
g4
sS'jflags'
p93
NsS'distcc'
p94
NsS'external-compiler'
p95
NsS'no-distcc'
p96
NsS'preinclude'
p97
NsS'using_sdk'
p98
I01
sS'nologo'
p99
NsS'warn-level'
p100
I2
sS'mips_dbg_exe'
p101
S'd:\\marmalade\\6.1\\s3e\\makefile_builder\\tool_launcher.exe'
p102
sS'mkb_in'
p103
S'c:/Users/dreambit/Documents/memorygame/memorygame.mkb'
p104
sS'arm_dbg_exe'
p105
S'd:/marmalade/6.1/s3e\\bin\\armdebug.exe'
p106
sS'list-targets'
p107
NsS'arm_rel_exe'
p108
g102
sS'arm_rel_args'
p109
g88
sS'makedeps'
p110
NsS'default-buildenv'
p111
S'vc10'
p112
sS'x86_rel_exe'
p113
g20
sS'preprocess-java'
p114
NsS'mips_rel_args'
p115
g88
sS'defines'
p116
NsS'lib'
p117
NsS'global_argv'
p118
(lp119
S'D:\\Marmalade\\6.1\\s3e\\makefile_builder\\mkb.py'
p120
aS'c:/Users/dreambit/Documents/memorygame/memorygame.mkb'
p121
aS'--default-buildenv=vc10'
p122
aS'--msvc-project'
p123
asS'make'
p124
NsS'optimise-speed'
p125
NsS'internal'
p126
NsS'enable-stdinc'
p127
NsS'deploy-only'
p128
NsS'x86'
p129
NsS'deploy'
p130
g4
sS'x86_run_exe'
p131
S'd:/marmalade/6.1/s3e\\win32\\s3e_console.exe'
p132
sS'x86_rel_args'
p133
S'-via:"c:\\Users\\dreambit\\Documents\\memorygame\\build_memorygame_vc10\\memorygame_vc10_release.via"'
p134
sS'gcc_rel_args'
p135
g88
sS'mips'
p136
NsS'incredibuild'
p137
NsS'strict-compile'
p138
NsS'use-auto-subdirs'
p139
NsS'mips_rel_exe'
p140
g102
sS'app-icf'
p141
g4
sS'deployargs'
p142
NsS'mkf_in'
p143
(lp144
S'd:\\marmalade\\6.1\\modules\\iw2d\\iw2d.mkf'
p145
aS'd:\\marmalade\\6.1\\modules\\iwgx\\iwgx.mkf'
p146
aS'd:\\marmalade\\6.1\\modules\\iwgeom\\iwgeom.mkf'
p147
aS'd:\\marmalade\\6.1\\modules\\iwutil\\iwutil.mkf'
p148
aVc:\u005cusers\u005cdreambit\u005cappdata\u005croaming\u005cmarmalade\u005cpackages\u005c6.1.1\u005clibjpeg_6b\u005clibjpeg.mkf
p149
aVc:\u005cusers\u005cdreambit\u005cappdata\u005croaming\u005cmarmalade\u005cpackages\u005c6.1.1\u005clibpng_1.2.34\u005clibpng.mkf
p150
aVc:\u005cusers\u005cdreambit\u005cappdata\u005croaming\u005cmarmalade\u005cpackages\u005c6.1.1\u005czlib_1.2.4\u005czlib.mkf
p151
aS'd:\\marmalade\\6.1\\modules\\iwresmanager\\iwresmanager.mkf'
p152
aS'd:\\marmalade\\6.1\\modules\\iwgl\\iwgl.mkf'
p153
aS'd:\\marmalade\\6.1\\modules\\iwgxfont\\iwgxfont.mkf'
p154
aVc:\u005cusers\u005cdreambit\u005cappdata\u005croaming\u005cmarmalade\u005cpackages\u005c6.1.1\u005ctiniconv_1.0.1\u005ctiniconv.mkf
p155
asS'strict-mkb'
p156
NsS'executeargs'
p157
NsS'clean'
p158
NsS'no-asm'
p159
NsS'output-name'
p160
g4
sS'no-modules'
p161
NsS'find_define'
p162
g4
s(dp163
S'd:\\marmalade\\6.1\\s3e\\makefile_builder\\plugins\\deploy.pyc'
p164
F1346980156.0
sS'd:\\marmalade\\6.1\\s3e\\makefile_builder\\templates\\xcode_pbxuser.py'
p165
F1346967582.0
sS'd:\\marmalade\\6.1\\s3e\\makefile_builder\\templates\\win32_vcproj.pyc'
p166
F1346980156.0
sS'd:\\marmalade\\6.1\\s3e\\makefile_builder\\templates\\qmake_user.py'
p167
F1346967582.0
sS'd:\\marmalade\\6.1\\s3e\\makefile_builder\\plugins\\s3e_xcode.pyc'
p168
F1351196774.1050699
sS'd:\\marmalade\\6.1\\s3e\\makefile_builder\\mkb_parser.pyc'
p169
F1346980156.0
sS'd:\\marmalade\\6.1\\s3e\\makefile_builder\\plugins\\s3e_web.pyc'
p170
F1346980156.0
sS'd:\\marmalade\\6.1\\s3e\\makefile_builder\\mkb_launcher.exe'
p171
F1346968658.0
sS'd:\\marmalade\\6.1\\s3e\\makefile_builder\\plugins\\SConsEmitter.pyc'
p172
F1346980156.0
sS'd:\\marmalade\\6.1\\s3e\\makefile_builder\\docs\\deprecated.options.txt'
p173
F1346967580.0
sS'd:\\marmalade\\6.1\\s3e\\makefile_builder\\templates\\win32_vcxproj_filters.pyc'
p174
F1346980158.0
sS'd:\\marmalade\\6.1\\s3e\\makefile_builder\\templates\\vc7_suo.pyc'
p175
F1346980156.0
sS'd:\\marmalade\\6.1\\s3e\\makefile_builder\\plugins\\S3EEmitter.pyc'
p176
F1346980156.0
sS'd:\\marmalade\\6.1\\s3e\\makefile_builder\\templates\\win32_sln.pyc'
p177
F1346980156.0
sS'd:\\marmalade\\6.1\\s3e\\makefile_builder\\mkb_globals.pyc'
p178
F1346980156.0
sS'd:\\marmalade\\6.1\\s3e\\makefile_builder\\templates\\linker_script'
p179
F1346967582.0
sS'd:\\marmalade\\6.1\\s3e\\makefile_builder\\templates\\vc10_user.pyc'
p180
F1346980158.0
sS'd:\\marmalade\\6.1\\s3e\\makefile_builder\\mkb_util.pyc'
p181
F1346980156.0
sS'd:\\marmalade\\6.1\\s3e\\makefile_builder\\tool_launcher.exe'
p182
F1346968662.0
sS'd:\\marmalade\\6.1\\s3e\\makefile_builder\\extensions'
p183
F1351196654.8682499
sS'd:\\marmalade\\6.1\\s3e\\makefile_builder\\extensions\\make_dist.py'
p184
F1346967580.0
sS'd:\\marmalade\\6.1\\s3e\\makefile_builder\\templates\\rvct_linker_script'
p185
F1346967582.0
sS'd:\\marmalade\\6.1\\s3e\\makefile_builder\\templates\\vc8_user.pyc'
p186
F1346980158.0
sS'd:\\marmalade\\6.1\\s3e\\makefile_builder\\plugins\\VisualStudioEmitter.pyc'
p187
F1346980156.0
sS'd:\\marmalade\\6.1\\s3e\\makefile_builder\\plugins\\xcode4_schememanagement.pyc'
p188
F1351196774.0660677
sS'd:\\marmalade\\6.1\\s3e\\makefile_builder\\templates\\xcode4_DeployTool.xcscheme'
p189
F1346967582.0
sS'd:\\marmalade\\6.1\\s3e\\makefile_builder\\plugins\\osx_scons.pyc'
p190
F1346980156.0
sS'd:\\marmalade\\6.1\\s3e\\makefile_builder\\docs\\options.txt'
p191
F1346967580.0
sS'd:\\marmalade\\6.1\\s3e\\makefile_builder\\templates\\win32_dsw.pyc'
p192
F1346980156.0
sS'd:\\marmalade\\6.1\\s3e\\makefile_builder\\docs\\parse_options.pyc'
p193
F1346980158.0
sS'd:\\marmalade\\6.1\\s3e\\makefile_builder\\templates\\template.opt'
p194
F1346967582.0
sS'd:\\marmalade\\6.1\\s3e\\makefile_builder\\docs'
p195
F1351196655.1092639
sS'd:\\marmalade\\6.1\\s3e\\makefile_builder\\plugins\\xcode4_schememanagement.py'
p196
F1346967582.0
sS'd:\\marmalade\\6.1\\s3e\\makefile_builder\\templates'
p197
F1351196654.835248
sS'd:\\marmalade\\6.1\\s3e\\makefile_builder\\plugins\\s3e_vc6.pyc'
p198
F1346980156.0
sS'd:\\marmalade\\6.1\\s3e\\makefile_builder\\docs\\mkb.defines.txt'
p199
F1346967580.0
sS'd:\\marmalade\\6.1\\s3e\\makefile_builder\\templates\\scons.pyc'
p200
F1346980156.0
sS'd:\\marmalade\\6.1\\s3e\\makefile_builder\\templates\\xcode.py'
p201
F1346967582.0
sS'd:\\marmalade\\6.1\\s3e\\makefile_builder\\plugins\\Emitter.pyc'
p202
F1346980156.0
sS'd:\\marmalade\\6.1\\s3e\\makefile_builder\\plugins\\s3e_qmake.pyc'
p203
F1351196774.0900691
sS'd:\\marmalade\\6.1\\s3e\\makefile_builder\\plugins'
p204
F1351196774.1050699
sS'd:\\marmalade\\6.1\\s3e\\makefile_builder\\plugins\\XcodeEmitter.pyc'
p205
F1351196774.0640676
sS'd:\\marmalade\\6.1\\s3e\\makefile_builder\\plugins\\linux_scons.pyc'
p206
F1346980156.0
sS'd:\\marmalade\\6.1\\s3e\\makefile_builder\\plugins\\win32_vc6.pyc'
p207
F1346980156.0
sS'd:\\marmalade\\6.1\\s3e\\makefile_builder\\plugins\\XcodeEmitter.py'
p208
F1346967582.0
sS'd:\\marmalade\\6.1\\s3e\\makefile_builder\\plugins\\s3e_scons.pyc'
p209
F1346980156.0
sS'd:\\marmalade\\6.1\\s3e\\makefile_builder\\templates\\MainWindow.xib'
p210
F1346967582.0
sS'd:\\marmalade\\6.1\\s3e\\makefile_builder\\templates\\Info.plist'
p211
F1346967582.0
sS'd:\\marmalade\\6.1\\s3e\\makefile_builder\\plugins\\s3e_make.pyc'
p212
F1346980156.0
sS'd:\\marmalade\\6.1\\s3e\\makefile_builder\\templates\\win32_dsp.pyc'
p213
F1346980156.0
sS'd:\\marmalade\\6.1\\s3e\\makefile_builder\\plugins\\vc6_utils.pyc'
p214
F1346980156.0
sS'd:\\marmalade\\6.1\\s3e\\makefile_builder\\templates\\make.py'
p215
F1346967582.0
sS'd:\\marmalade\\6.1\\s3e\\makefile_builder\\templates\\win32_vcxproj.pyc'
p216
F1346980158.0
sS'd:\\marmalade\\6.1\\s3e\\makefile_builder\\mkb_main.pyc'
p217
F1346980156.0
sS'd:\\marmalade\\6.1\\s3e\\makefile_builder\\templates\\vc6_opt.pyc'
p218
F1346980156.0
sS'd:\\marmalade\\6.1\\s3e\\makefile_builder\\plugins\\iphone.pyc'
p219
F1346980156.0
sS'd:\\marmalade\\6.1\\s3e\\makefile_builder\\templates\\qmake.py'
p220
F1346967582.0
sS'd:\\marmalade\\6.1\\s3e\\makefile_builder\\templates\\mips_linker_script'
p221
F1346967582.0
sS'd:\\marmalade\\6.1\\s3e\\makefile_builder\\mkb.py'
p222
F1346967580.0
sS'd:\\marmalade\\6.1\\s3e\\makefile_builder\\plugins\\s3e_qmake.py'
p223
F1346967582.0
sS'd:\\marmalade\\6.1\\s3e\\makefile_builder\\deployment.pyc'
p224
F1346980156.0
sS'd:\\marmalade\\6.1\\s3e\\makefile_builder\\templates\\template.suo'
p225
F1346967582.0
sS'd:\\marmalade\\6.1\\s3e\\makefile_builder\\templates\\gdb_start.txt'
p226
F1346967582.0
sS'd:\\marmalade\\6.1\\s3e\\makefile_builder\\docs\\deployment_options.txt'
p227
F1346967580.0
sS'd:\\marmalade\\6.1\\s3e\\makefile_builder\\plugins\\MakeEmitter.pyc'
p228
F1346980156.0
sS'd:\\marmalade\\6.1\\s3e\\makefile_builder\\plugins\\osx_xcode.pyc'
p229
F1346980156.0
sS'd:\\marmalade\\6.1\\s3e\\makefile_builder\\plugins\\null.pyc'
p230
F1346980156.0
sS'd:\\marmalade\\6.1\\s3e\\makefile_builder\\mkb_option.pyc'
p231
F1346980156.0
sS'd:\\marmalade\\6.1\\s3e\\makefile_builder\\docs\\deprecated.defines.txt'
p232
F1346967580.0
sS'd:\\marmalade\\6.1\\s3e\\makefile_builder\\plugins\\s3e_xcode.py'
p233
F1346967582.0
sS'd:\\marmalade\\6.1\\s3e\\makefile_builder\\plugins\\vc7_utils.pyc'
p234
F1346980156.0
sS'd:\\marmalade\\6.1\\s3e\\makefile_builder\\plugins\\java.pyc'
p235
F1346980156.0
sS'd:\\marmalade\\6.1\\s3e\\makefile_builder\\templates\\xcode4.xcscheme'
p236
F1346967582.0
sccopy_reg
_reconstructor
p237
(cmkb_main
MkbFile
p238
c__builtin__
object
p239
Ntp240
Rp241
(dp242
g5
(lp243
sS'target_name'
p244
S'memorygame'
p245
sS'current_file'
p246
g104
sS'package_path'
p247
(lp248
VC:\u005cUsers\u005cdreambit\u005cAppData\u005cRoaming\u005cMarmalade\u005cpackages\u005c6.1.1\u005clibjpeg_6b
p249
aVC:\u005cUsers\u005cdreambit\u005cAppData\u005cRoaming\u005cMarmalade\u005cpackages\u005c6.1.1\u005clibpng_1.2.34
p250
aVC:\u005cUsers\u005cdreambit\u005cAppData\u005cRoaming\u005cMarmalade\u005cpackages\u005c6.1.1\u005czlib_1.2.4
p251
aVC:\u005cUsers\u005cdreambit\u005cAppData\u005cRoaming\u005cMarmalade\u005cpackages\u005c6.1.1\u005ctiniconv_1.0.1
p252
asS'post_build'
p253
(lp254
(lp255
S'd:/marmalade/6.1/s3e/tools'
p256
aS'D:\\Marmalade\\6.1\\s3e\\python\\python.exe .\\process_map.py "$(TargetPath)"'
p257
aa(S'd:\\marmalade\\6.1\\s3e'
p258
S'"d:\\marmalade\\6.1\\s3e\\bin\\s3e_plink" -l "$(TargetPath)"'
p259
g129
tp260
asS'librarys'
p261
(lp262
g237
(cmkb_main
Library
p263
g239
Ntp264
Rp265
(dp266
S'name'
p267
S'vc6_compat.lib'
p268
sS'expand_name'
p269
I00
sS'include_spec_rvct_objs'
p270
(lp271
sS'include_all_objs'
p272
I00
sS'share_arm'
p273
I00
sS'arch'
p274
S'x86'
p275
sS'nodebug'
p276
I00
sg31
Nsbag237
(g263
g239
Ntp277
Rp278
(dp279
g267
S'jpeg'
p280
sg269
I01
sg270
(lp281
sg272
I00
sg273
Nsg274
Nsg276
I00
sg31
Nsbag237
(g263
g239
Ntp282
Rp283
(dp284
g267
S'z'
p285
sg269
I01
sg270
g281
sg272
I00
sg273
Nsg274
Nsg276
I00
sg31
Nsbag237
(g263
g239
Ntp286
Rp287
(dp288
g267
S'png'
p289
sg269
I01
sg270
g281
sg272
I00
sg273
Nsg274
Nsg276
I00
sg31
Nsbag237
(g263
g239
Ntp290
Rp291
(dp292
g267
S'iwutil'
p293
sg269
I01
sg270
g281
sg272
I00
sg273
I01
sg274
Nsg276
I00
sg31
Nsbag237
(g263
g239
Ntp294
Rp295
(dp296
g267
S'iwgeom'
p297
sg269
I01
sg270
g281
sg272
I00
sg273
I01
sg274
Nsg276
I00
sg31
Nsbag237
(g263
g239
Ntp298
Rp299
(dp300
g267
S'iwresmanager'
p301
sg269
I01
sg270
g281
sg272
I00
sg273
I01
sg274
Nsg276
I00
sg31
Nsbag237
(g263
g239
Ntp302
Rp303
(dp304
g267
S'ATI_Compress_MT_VC7.lib'
p305
sg269
I00
sg270
g281
sg272
I00
sg273
Nsg274
S'x86'
p306
sg276
I00
sg31
Nsbag237
(g263
g239
Ntp307
Rp308
(dp309
g267
S'iwgx'
p310
sg269
I01
sg270
g281
sg272
I00
sg273
I01
sg274
Nsg276
I00
sg31
Nsbag237
(g263
g239
Ntp311
Rp312
(dp313
g267
S'iwgl'
p314
sg269
I01
sg270
g281
sg272
I00
sg273
Nsg274
Nsg276
I00
sg31
Nsbag237
(g263
g239
Ntp315
Rp316
(dp317
g267
S'iwgxfont'
p318
sg269
I01
sg270
g281
sg272
I00
sg273
I01
sg274
Nsg276
I00
sg31
Nsbag237
(g263
g239
Ntp319
Rp320
(dp321
g267
S'tiniconv'
p322
sg269
I01
sg270
g281
sg272
I00
sg273
Nsg274
Nsg276
I00
sg31
Nsbag237
(g263
g239
Ntp323
Rp324
(dp325
g267
S'iw2d'
p326
sg269
I01
sg270
g281
sg272
I00
sg273
I01
sg274
Nsg276
I00
sg31
Nsbag237
(g263
g239
Ntp327
Rp328
(dp329
g267
S's3e_cpp'
p330
sg269
I01
sg270
g271
sg272
I00
sg273
I00
sg274
Nsg276
I00
sg31
Nsbag237
(g263
g239
Ntp331
Rp332
(dp333
g267
S's3e'
p334
sg269
I01
sg270
(lp335
S'iwcrt.o'
p336
asg272
I00
sg273
I00
sg274
Nsg276
I00
sg31
Nsbag237
(g263
g239
Ntp337
Rp338
(dp339
g267
S's3e_api'
p340
sg269
I01
sg270
g271
sg272
I00
sg273
I00
sg274
Nsg276
I1
sg31
Nsbag237
(g263
g239
Ntp341
Rp342
(dp343
g267
S's3e_api'
p344
sg269
I00
sg270
g271
sg272
I00
sg273
I00
sg274
S'arm'
p345
sg276
I00
sg31
S'gcc'
p346
sbag237
(g263
g239
Ntp347
Rp348
(dp349
g267
S'stdc++'
p350
sg269
I00
sg270
g271
sg272
I00
sg273
I00
sg274
S'mips'
p351
sg276
I00
sg31
Nsbag237
(g263
g239
Ntp352
Rp353
(dp354
g267
S'c'
p355
sg269
I00
sg270
g271
sg272
I00
sg273
I00
sg274
S'mips'
p356
sg276
I00
sg31
Nsbag237
(g263
g239
Ntp357
Rp358
(dp359
g267
S'm'
p360
sg269
I00
sg270
g271
sg272
I00
sg273
I00
sg274
S'mips'
p361
sg276
I00
sg31
Nsbag237
(g263
g239
Ntp362
Rp363
(dp364
g267
S'gcc'
p365
sg269
I00
sg270
g271
sg272
I00
sg273
I00
sg274
S'mips'
p366
sg276
I00
sg31
NsbasS'library_paths'
p367
(lp368
g237
(cmkb_main
LibraryPath
p369
g239
Ntp370
Rp371
(dp372
S'expand_path'
p373
I01
sS'add_cpu_variant'
p374
I00
sg267
Vc:/users/dreambit/appdata/roaming/marmalade/packages/6.1.1/libjpeg_6b
p375
sbag237
(g369
g239
Ntp376
Rp377
(dp378
g373
I01
sg374
I00
sg267
Vc:/users/dreambit/appdata/roaming/marmalade/packages/6.1.1/zlib_1.2.4
p379
sbag237
(g369
g239
Ntp380
Rp381
(dp382
g373
I01
sg374
I00
sg267
Vc:/users/dreambit/appdata/roaming/marmalade/packages/6.1.1/libpng_1.2.34
p383
sbag237
(g369
g239
Ntp384
Rp385
(dp386
g373
I01
sg374
I00
sg267
S'd:/marmalade/6.1/modules/iwutil'
p387
sbag237
(g369
g239
Ntp388
Rp389
(dp390
g373
I01
sg374
I00
sg267
S'd:/marmalade/6.1/modules/iwgeom'
p391
sbag237
(g369
g239
Ntp392
Rp393
(dp394
g373
I01
sg374
I00
sg267
S'd:/marmalade/6.1/modules/iwresmanager'
p395
sbag237
(g369
g239
Ntp396
Rp397
(dp398
g373
I00
sg374
I00
sg267
S'd:/marmalade/6.1/modules/iwgx/atitools'
p399
sbag237
(g369
g239
Ntp400
Rp401
(dp402
g373
I01
sg374
I00
sg267
S'd:/marmalade/6.1/modules/iwgx'
p403
sbag237
(g369
g239
Ntp404
Rp405
(dp406
g373
I01
sg374
I00
sg267
S'd:/marmalade/6.1/modules/iwgl'
p407
sbag237
(g369
g239
Ntp408
Rp409
(dp410
g373
I01
sg374
I00
sg267
S'd:/marmalade/6.1/modules/iwgxfont'
p411
sbag237
(g369
g239
Ntp412
Rp413
(dp414
g373
I01
sg374
I00
sg267
Vc:/users/dreambit/appdata/roaming/marmalade/packages/6.1.1/tiniconv_1.0.1
p415
sbag237
(g369
g239
Ntp416
Rp417
(dp418
g373
I01
sg374
I00
sg267
S'd:/marmalade/6.1/modules/iw2d'
p419
sbag237
(g369
g239
Ntp420
Rp421
(dp422
g373
I01
sg374
I00
sg267
S'd:/marmalade/6.1/s3e'
p423
sbasS'macros'
p424
(dp425
S'IW_USE_CALLSTACK'
p426
NsS'IW_SDK'
p427
NsS'I3D_PLATFORM_S3E'
p428
NsS'IW_MKF_LIBJPEG'
p429
NsS'I3D_OS_S3E'
p430
NsS'IW_MKF_TINICONV'
p431
NsS'IW_APP_VERSION'
p432
S'"1.0"'
p433
sS'IW_MKF_IWRESMANAGER'
p434
NsS'IW_MKF_IWUTIL'
p435
NsS'IW_MKF_IWGEOM'
p436
NsS'IW_ASSERTION_CHANNEL_2D'
p437
S'1'
p438
sS'IW_APP_NAME'
p439
S'"memorygame"'
p440
sS'IW_MKF_IWGXFONT'
p441
NsS'IW_PLATFORM_S3E'
p442
NsS'IW_MKF_ZLIB'
p443
NsS'IW_MKF_IWGX'
p444
NsS'IW_USE_ASSERTIONS'
p445
NsS'_CRT_SECURE_NO_DEPRECATE'
p446
NsS'IW_MKF_IWGL'
p447
NsS'IW_MKF_LIBPNG'
p448
NsS'IW_DEBUG'
p449
NsS'IW_USE_TRACING'
p450
NsS'S3E_INCLUDE_LEGACY'
p451
NsS'__S3E__'
p452
NsS'IW_MKF_IW2D'
p453
NssS'done_warnings'
p454
(dp455
sS'subprojects'
p456
(dp457
Vc:\u005cusers\u005cdreambit\u005cappdata\u005croaming\u005cmarmalade\u005cpackages\u005c6.1.1\u005clibjpeg_6b\u005clibjpeg.mkf
p458
S'libjpeg'
p459
sg147
S'iwgeom'
p460
sg152
S'iwresmanager'
p461
sVc:\u005cusers\u005cdreambit\u005cappdata\u005croaming\u005cmarmalade\u005cpackages\u005c6.1.1\u005clibpng_1.2.34\u005clibpng.mkf
p462
S'libpng'
p463
sg154
S'iwgxfont'
p464
sg146
S'iwgx'
p465
sVc:\u005cusers\u005cdreambit\u005cappdata\u005croaming\u005cmarmalade\u005cpackages\u005c6.1.1\u005ctiniconv_1.0.1\u005ctiniconv.mkf
p466
S'tiniconv'
p467
sg145
S'iw2d'
p468
sg153
S'iwgl'
p469
sVc:\u005cusers\u005cdreambit\u005cappdata\u005croaming\u005cmarmalade\u005cpackages\u005c6.1.1\u005czlib_1.2.4\u005czlib.mkf
p470
S'zlib'
p471
sg148
S'iwutil'
p472
ssS'deployments'
p473
(dp474
S'Default'
p475
g237
(cdeployment
Deployment
p476
g239
Ntp477
Rp478
(dp479
S'got_version'
p480
I0
sS'assets'
p481
g475
sS'mkb'
p482
g241
sS'target'
p483
Nsg274
(lp484
sS'options'
p485
(dp486
S'iphone-link-lib'
p487
(lp488
sS'game-icf'
p489
NsS'iphone-icon-high-res'
p490
NsS'win32-pref-windowposy'
p491
NsS'win32-pref-windowposx'
p492
NsS'bada-appsecret'
p493
NsS'playbook-author'
p494
S'dreambitc'
p495
sS'winmobile-icon32'
p496
NsS'linux-ext-lib'
p497
(lp498
sS'target-folder'
p499
NsS'iphone-splashscreen-landscape'
p500
NsS'ngi-splashscreen-port'
p501
NsS'psp-discversion'
p502
NsS'lgtv-use-drm'
p503
NsS'nds-bannertitle-sp'
p504
NsS'symbian-platsecflags'
p505
NsS'psp-producer'
p506
NsS'iphone-icon-ipad-search-high-res'
p507
NsS'iphone-provisioning-profile'
p508
NsS'copyright'
p509
NsS'winmobile-png45'
p510
NsS'iphone-link-libdir'
p511
(lp512
sS'symbian-cert'
p513
NsS'nds-bannertitle-hn'
p514
NsS'brew-depends'
p515
NsS'winmobile-png60'
p516
NsS'winmobile-nouninstall'
p517
NsS'brew-mif'
p518
NsS'android-icon-hdpi'
p519
NsS'iphone-ipad-only'
p520
NsS'iphone-splash-full-orient'
p521
NsS'iphone-bundle-url-name'
p522
NsS'android-aliasname'
p523
NsS'iphone-splash-retina-generate'
p524
NsS'psp-dlgmanual'
p525
NsS'iphone-backgroundmode-audio'
p526
NsS'android-pkgname'
p527
NsS'webos-memory'
p528
NsS'brew-uid'
p529
NsS'android-keypass'
p530
NsS'ngi-uid'
p531
NsS'symbian-locationsupport'
p532
NsS'iphone-signing-host'
p533
NsS'ngi-install-sisx-only'
p534
NsS'nds-bannertitle-jp'
p535
NsS'name'
p536
NsS'symbian-run-on-install'
p537
NsS'osx-info-plist'
p538
NsS'symbian-icon1-format'
p539
NsS'uiq3-uid'
p540
NsS'psp-dlgcontentid'
p541
NsS'ngi-gcce-loader'
p542
NsS'auto-derbh'
p543
NsS'arch'
p544
NsS'bada-use-partner-privileges'
p545
NsS'nds-bannertitle-it'
p546
NsS'playbook-authorid'
p547
S'gYAAgA8XHY6RUvCxDXH1BI2BprM'
p548
sS'psp-copyright'
p549
NsS'ngi-achievements'
p550
NsS'splashscreen'
p551
NsS'symbian-soundrecordsupport'
p552
NsS'symbian-icon2-format'
p553
NsS'long-caption'
p554
NsS'iphone-icon-settings-high-res'
p555
NsS'android-manifest'
p556
NsS'ngi-splash-producer'
p557
NsS'winmobile-icon16'
p558
NsS's3e-compression'
p559
NsS'ngi-game-extras'
p560
NsS'iphone-link-opts'
p561
(lp562
sS'iphone-region'
p563
NsS'uiq3-icon3-mask'
p564
NsS'winmobile-start-menu-folder'
p565
NsS'brew-clsid'
p566
NsS'brew-encoding'
p567
NsS'symbian-icon1'
p568
NsS'symbian-icon2'
p569
NsS'ngi-icon1'
p570
NsS'nds-makercode'
p571
NsS'ngi-icon3'
p572
NsS'ngi-icon2'
p573
NsS'ngi-icon4'
p574
NsS'osx-ext-dll'
p575
(lp576
sS'version'
p577
NsS'bada-manifest'
p578
NsS'provider'
p579
NsS'iphone-prerendered-icon'
p580
NsS'iphone-appid'
p581
NsS'playbook-keystore'
p582
NsS'nds-initialcode'
p583
NsS'ngi-splashscreen-land'
p584
NsS'symbian-osexecsupport'
p585
NsS'winmobile-icon64'
p586
NsS'iphone-persistent-wifi'
p587
NsS'symbian7-uid'
p588
NsS'winmobile-setup-dll'
p589
NsS'android-external-jars'
p590
(lp591
sS'android-install-location'
p592
NsS'olddeploytoolstyle'
p593
NsS'nds-privatesavedatasize'
p594
NsS'symbian9-uid'
p595
NsS'nds-bannertitle-cn'
p596
NsS'winmobile-trace-file'
p597
NsS'playbook-storepass'
p598
NsS'ngi-no-assets'
p599
NsS'android-icon-ldpi'
p600
NsS'psp-appversion'
p601
NsS'networking'
p602
NsS'winmobile-install-folder'
p603
NsS'ngi-metadata'
p604
NsS'android-external-res'
p605
(lp606
sS'manufacturer'
p607
NsS'android-icon-gallery'
p608
NsS'bada-signed'
p609
NsS'nds-publicsavedatasize'
p610
NsS'iphone-apple-wwdr-cert'
p611
NsS'psp-snd0'
p612
NsS'iphone-extra-sections'
p613
NsS'iphone-nosign'
p614
NsS'caption'
p615
NsS'android-icon'
p616
NsS'iphone-icon-large'
p617
NsS'android-storepass'
p618
NsS'iphone-info-plist'
p619
NsS'ngi-arena-config'
p620
NsS'android-extra-manifest'
p621
(lp622
sS'iphone-icon-ipad-search'
p623
NsS'android-custom-activity'
p624
NsS'version-minor'
p625
NsS'iphone-icon-ipad'
p626
NsS'bada-appid'
p627
NsS'iphone-distribution-key'
p628
NsS'iphone-link-libdirs'
p629
(lp630
sS'symbian-maxheapsize'
p631
NsS'embed-icf'
p632
NsS'psp-titlename'
p633
NsS'symbian-icon1-mask'
p634
NsS'psp-parentallevel'
p635
NsS'priv-sign-key'
p636
NsS'webos-appinfo'
p637
NsS'symbian-cert-key'
p638
NsS'winmobile-ampd-part-number'
p639
NsS'webos-appid'
p640
NsS'android-icon-nonstandard'
p641
NsS'uiq3-icon2'
p642
NsS'iphone-icon-settings'
p643
NsS'ngi-gameinfo'
p644
NsS'iphone-distribution-cert'
p645
NsS'osx-icon'
p646
NsS'symbian-disable-ecompxl'
p647
NsS'splashscreen-auto-onblack'
p648
NsS'icon'
p649
NsS'nds-romheadertemplate'
p650
NsS'webos-icon'
p651
NsS'ngi-arena-rss'
p652
NsS'nds-bannertitle-en'
p653
NsS'win32-ext-dll'
p654
(lp655
sS'psp-dlgicon0'
p656
NsS'iphone-development-key'
p657
NsS'psp-discid'
p658
NsS'winmobile-icon48'
p659
NsS'uiq3-icon1-mask'
p660
NsS'nds-titlename'
p661
NsS'android-so'
p662
(lp663
sS'android-supports-gl-texture'
p664
(lp665
sS'bada-splash'
p666
NsS'version-revision'
p667
NsS'android-icon-mdpi'
p668
NsS'android-keystore'
p669
NsS'uiq3-icon2-format'
p670
NsS'version-string'
p671
NsS'winmobile-png90'
p672
NsS'iphone-icon-ipad-high-res'
p673
NsS'iphone-disable-ipad'
p674
NsS'uiq3-icon1-format'
p675
NsS'iphone-bundle-url-schemes'
p676
NsS'nds-icon'
p677
NsS'ngi-arena-locales'
p678
NsS'iphone-development-cert'
p679
NsS'ngi-filemanager-lib'
p680
NsS'android_extra_strings'
p681
NsS'playbook-icon'
p682
NsS'uid'
p683
NsS'iphone-signing-identity'
p684
NsS'brew-icon-medium'
p685
NsS'ngi-key'
p686
NsS'android-extra-application-manifest'
p687
(lp688
sS'pkguid-as-uid'
p689
NsS'symbian-icon1-mask-black'
p690
NsS'pub-sign-key'
p691
NsS'nds-bannertitle-fr'
p692
NsS'win32-pref-windowtitle'
p693
NsS'symbian8-uid'
p694
NsS'splashscreen-use-all'
p695
NsS'android-unsigned'
p696
NsS'brew-priviledges'
p697
NsS'ngi-cert'
p698
NsS'brew-icon-small'
p699
NsS'psp-dlgpic2'
p700
NsS'bada-icon'
p701
NsS'psp-dlgpic0'
p702
NsS'lgtv_l9-use-drm'
p703
NsS'psp-pic0'
p704
NsS'psp-pic1'
p705
NsS'iphone-icon'
p706
NsS'psp-icon0'
p707
NsS'psp-icon1'
p708
NsS'uiq3-icon3-format'
p709
NsS'version-major'
p710
NsS'iphone_bundle_localisations'
p711
NsS'winmobile-icon'
p712
NsS'symbian-keypwd'
p713
NsS'iphone-no-splash'
p714
NsS'playbook-access-shared'
p715
NsS'psp-dlghealthwarning'
p716
NsS'iphone-link-libs'
p717
(lp718
sS'ngi-filemanager-dll'
p719
NsS'iphone-splash'
p720
NsS'nds-bannertitle-ge'
p721
NsS'android_icon_gallery'
p722
NsS'brew-icon-large'
p723
NsS'iphone-app-fonts'
p724
NsS'symbian-icon2-mask'
p725
NsS'iphone-sign-for-distribution'
p726
NsS'psp-dlgprotectdocument'
p727
NsS'winmobile-cab-compress'
p728
NsS'uiq3-icon3'
p729
NsS'uiq3-icon1'
p730
NsS'itunes-artwork'
p731
NsS'win32-icon'
p732
NsS'assets'
p733
NsS'symbian-key'
p734
NsS'app-icf'
p735
NsS'ngi-arena-rsc'
p736
NsS'brew-compress-loader'
p737
NsS'uiq3-icon2-mask'
p738
NsS'symbian-icon2-mask-black'
p739
NsS'symbian-icon-svg'
p740
NsS'android-extra-strings'
p741
NsS'iphone-splashscreen-portrait'
p742
NsS'iphone-bundle-localisations'
p743
Nssg267
g475
sbssS'platform'
p744
S'S3E'
p745
sg52
S'1.0'
p746
sS'arcade_platform'
p747
g4
sS'extensions'
p748
(dp749
sS'source_groups_tree'
p750
(dp751
S'src'
p752
(dp753
S'c:/Users/dreambit/Documents/memorygame/src/game.cpp'
p754
(lp755
I1
a(dp756
asS'c:/Users/dreambit/Documents/memorygame/h/game.h'
p757
(lp758
I1
ag756
asS'c:/Users/dreambit/Documents/memorygame/src/main.cpp'
p759
(lp760
I1
ag756
assS'(libpng)'
p761
(dp762
Vc:/users/dreambit/appdata/roaming/marmalade/packages/6.1.1/libpng_1.2.34/h/png.h
p763
(lp764
I1
a(dp765
asVc:/users/dreambit/appdata/roaming/marmalade/packages/6.1.1/libpng_1.2.34/h/pngconf.h
p766
(lp767
I1
ag765
asVc:/users/dreambit/appdata/roaming/marmalade/packages/6.1.1/libpng_1.2.34/libpng.mkf
p768
(lp769
I1
a(dp770
assS'(libjpeg)'
p771
(dp772
Vc:/users/dreambit/appdata/roaming/marmalade/packages/6.1.1/libjpeg_6b/h/jpegint.h
p773
(lp774
I1
a(dp775
asVc:/users/dreambit/appdata/roaming/marmalade/packages/6.1.1/libjpeg_6b/h/jdct.h
p776
(lp777
I1
ag775
asVc:/users/dreambit/appdata/roaming/marmalade/packages/6.1.1/libjpeg_6b/h/jversion.h
p778
(lp779
I1
ag775
asVc:/users/dreambit/appdata/roaming/marmalade/packages/6.1.1/libjpeg_6b/h/transupp.h
p780
(lp781
I1
ag775
asVc:/users/dreambit/appdata/roaming/marmalade/packages/6.1.1/libjpeg_6b/h/cderror.h
p782
(lp783
I1
ag775
asVc:/users/dreambit/appdata/roaming/marmalade/packages/6.1.1/libjpeg_6b/h/jinclude.h
p784
(lp785
I1
ag775
asVc:/users/dreambit/appdata/roaming/marmalade/packages/6.1.1/libjpeg_6b/h/jchuff.h
p786
(lp787
I1
ag775
asVc:/users/dreambit/appdata/roaming/marmalade/packages/6.1.1/libjpeg_6b/libjpeg.mkf
p788
(lp789
I1
a(dp790
asVc:/users/dreambit/appdata/roaming/marmalade/packages/6.1.1/libjpeg_6b/h/cdjpeg.h
p791
(lp792
I1
ag775
asVc:/users/dreambit/appdata/roaming/marmalade/packages/6.1.1/libjpeg_6b/h/jerror.h
p793
(lp794
I1
ag775
asVc:/users/dreambit/appdata/roaming/marmalade/packages/6.1.1/libjpeg_6b/h/jconfig.h
p795
(lp796
I1
ag775
asVc:/users/dreambit/appdata/roaming/marmalade/packages/6.1.1/libjpeg_6b/h/jmorecfg.h
p797
(lp798
I1
ag775
asVc:/users/dreambit/appdata/roaming/marmalade/packages/6.1.1/libjpeg_6b/h/jpeglib.h
p799
(lp800
I1
ag775
asVc:/users/dreambit/appdata/roaming/marmalade/packages/6.1.1/libjpeg_6b/h/jdhuff.h
p801
(lp802
I1
ag775
asVc:/users/dreambit/appdata/roaming/marmalade/packages/6.1.1/libjpeg_6b/h/jmemsys.h
p803
(lp804
I1
ag775
assS'(tiniconv)'
p805
(dp806
Vc:/users/dreambit/appdata/roaming/marmalade/packages/6.1.1/tiniconv_1.0.1/h/tiniconv.h
p807
(lp808
I1
a(dp809
asVc:/users/dreambit/appdata/roaming/marmalade/packages/6.1.1/tiniconv_1.0.1/h/tiniconv_int.h
p810
(lp811
I1
ag809
asVc:/users/dreambit/appdata/roaming/marmalade/packages/6.1.1/tiniconv_1.0.1/tiniconv.mkf
p812
(lp813
I1
a(dp814
assS"'Marmalade Studio'"
p815
(dp816
S'iwgl'
p817
(dp818
S'd:/marmalade/6.1/modules/iwgl/iwgl.mkf'
p819
(lp820
I1
a(dp821
asS'd:/marmalade/6.1/modules/iwgl/h/IwGL.h'
p822
(lp823
I1
a(dp824
asS'd:/marmalade/6.1/modules/iwgl/docs/iwgl.config.txt'
p825
(lp826
I1
ag824
asS'd:/marmalade/6.1/modules/iwgl/h/IwGLExt.h'
p827
(lp828
I1
ag824
assS'iw2d'
p829
(dp830
S'd:/marmalade/6.1/modules/iw2d/iw2d.mkf'
p831
(lp832
I1
a(dp833
asS'd:/marmalade/6.1/modules/iw2d/docs/iw2d.config.txt'
p834
(lp835
I1
a(dp836
asS'd:/marmalade/6.1/modules/iw2d/h/Iw2D.h'
p837
(lp838
I1
ag836
asS'd:/marmalade/6.1/modules/iw2d/docs/iw2d_public.defines.txt'
p839
(lp840
I1
ag836
assS'iwgxfont'
p841
(dp842
S'd:/marmalade/6.1/modules/iwgxfont/h/IwGxFontPreparedData.h'
p843
(lp844
I1
a(dp845
asS'd:/marmalade/6.1/modules/iwgxfont/h/IwGxFont.h'
p846
(lp847
I1
ag845
asS'd:/marmalade/6.1/modules/iwgxfont/iwgxfont.mkf'
p848
(lp849
I1
a(dp850
asS'd:/marmalade/6.1/modules/iwgxfont/docs/iwgxfont.config.txt'
p851
(lp852
I1
ag845
asS'd:/marmalade/6.1/modules/iwgxfont/h/IwGxFontState.h'
p853
(lp854
I1
ag845
asS'd:/marmalade/6.1/modules/iwgxfont/h/IwGxFontContainer.h'
p855
(lp856
I1
ag845
asS'd:/marmalade/6.1/modules/iwgxfont/docs/iwgxfont_public.defines.txt'
p857
(lp858
I1
ag845
asS'd:/marmalade/6.1/modules/iwgxfont/h/IwGxFontGlyph.h'
p859
(lp860
I1
ag845
asS'd:/marmalade/6.1/modules/iwgxfont/h/IwGxFontTypes.h'
p861
(lp862
I1
ag845
assS'iwgeom'
p863
(dp864
S'd:/marmalade/6.1/modules/iwgeom/h/IwGeomFMat.h'
p865
(lp866
I1
a(dp867
asS'd:/marmalade/6.1/modules/iwgeom/iwgeom.mkf'
p868
(lp869
I1
a(dp870
asS'd:/marmalade/6.1/modules/iwgeom/h/IwGeom.h'
p871
(lp872
I1
ag867
asS'd:/marmalade/6.1/modules/iwgeom/h/IwGeomFPlane.h'
p873
(lp874
I1
ag867
asS'd:/marmalade/6.1/modules/iwgeom/h/IwGeomFVec2.h'
p875
(lp876
I1
ag867
asS'd:/marmalade/6.1/modules/iwgeom/h/IwGeomFVec4.h'
p877
(lp878
I1
ag867
asS'd:/marmalade/6.1/modules/iwgeom/h/IwGeomIntersect.h'
p879
(lp880
I1
ag867
asS'd:/marmalade/6.1/modules/iwgeom/h/IwGeomLegacy.h'
p881
(lp882
I1
ag867
asS'd:/marmalade/6.1/modules/iwgeom/h/IwGeomSQuat.h'
p883
(lp884
I1
ag867
asS'd:/marmalade/6.1/modules/iwgeom/h/IwGeomFBBox.h'
p885
(lp886
I1
ag867
asS'd:/marmalade/6.1/modules/iwgeom/h/IwGeomVec2.h'
p887
(lp888
I1
ag867
asS'd:/marmalade/6.1/modules/iwgeom/h/IwGeomMat.h'
p889
(lp890
I1
ag867
asS'd:/marmalade/6.1/modules/iwgeom/h/IwGeomVec3.h'
p891
(lp892
I1
ag867
asS'd:/marmalade/6.1/modules/iwgeom/h/IwGeomQuat.h'
p893
(lp894
I1
ag867
asS'd:/marmalade/6.1/modules/iwgeom/h/IwGeomSVec4.h'
p895
(lp896
I1
ag867
asS'd:/marmalade/6.1/modules/iwgeom/h/IwGeomCore.h'
p897
(lp898
I1
ag867
asS'd:/marmalade/6.1/modules/iwgeom/h/IwGeomFIntersect.h'
p899
(lp900
I1
ag867
asS'd:/marmalade/6.1/modules/iwgeom/h/IwGeomSVec2.h'
p901
(lp902
I1
ag867
asS'd:/marmalade/6.1/modules/iwgeom/h/IwGeomMat2D.h'
p903
(lp904
I1
ag867
asS'd:/marmalade/6.1/modules/iwgeom/h/IwGeomVec4.h'
p905
(lp906
I1
ag867
asS'd:/marmalade/6.1/modules/iwgeom/h/IwGeomSVec3.h'
p907
(lp908
I1
ag867
asS'd:/marmalade/6.1/modules/iwgeom/h/IwGeomFQuat.h'
p909
(lp910
I1
ag867
asS'd:/marmalade/6.1/modules/iwgeom/h/IwGeomPlane.h'
p911
(lp912
I1
ag867
asS'd:/marmalade/6.1/modules/iwgeom/h/IwGeomBBox.h'
p913
(lp914
I1
ag867
asS'd:/marmalade/6.1/modules/iwgeom/h/IwGeomSqrt.h'
p915
(lp916
I1
ag867
asS'd:/marmalade/6.1/modules/iwgeom/h/IwGeomFVec3.h'
p917
(lp918
I1
ag867
asS'd:/marmalade/6.1/modules/iwgeom/h/IwGeomFSphere.h'
p919
(lp920
I1
ag867
asS'd:/marmalade/6.1/modules/iwgeom/docs/iwgeom.config.txt'
p921
(lp922
I1
ag867
asS'd:/marmalade/6.1/modules/iwgeom/h/IwGeomFMat2D.h'
p923
(lp924
I1
ag867
asS'd:/marmalade/6.1/modules/iwgeom/h/IwGeomSphere.h'
p925
(lp926
I1
ag867
asS'd:/marmalade/6.1/modules/iwgeom/h/IwGeomMenu.h'
p927
(lp928
I1
ag867
asS'd:/marmalade/6.1/modules/iwgeom/h/IwGeomVec.h'
p929
(lp930
I1
ag867
assS'iwresmanager'
p931
(dp932
S'd:/marmalade/6.1/modules/iwresmanager/h/IwResHandlerGROUP.h'
p933
(lp934
I1
a(dp935
asS'd:/marmalade/6.1/modules/iwresmanager/h/IwResManager.h'
p936
(lp937
I1
ag935
asS'd:/marmalade/6.1/modules/iwresmanager/h/IwResHandlerImage.h'
p938
(lp939
I1
ag935
asS'd:/marmalade/6.1/modules/iwresmanager/h/IwResHandlerITX.h'
p940
(lp941
I1
ag935
asS'd:/marmalade/6.1/modules/iwresmanager/h/IwResManagerClass.h'
p942
(lp943
I1
ag935
asS'd:/marmalade/6.1/modules/iwresmanager/docs/iwresmanager.config.txt'
p944
(lp945
I1
ag935
asS'd:/marmalade/6.1/modules/iwresmanager/iwresmanager.mkf'
p946
(lp947
I1
a(dp948
asS'd:/marmalade/6.1/modules/iwresmanager/h/IwResSerialise.h'
p949
(lp950
I1
ag935
asS'd:/marmalade/6.1/modules/iwresmanager/h/IwResGroup.h'
p951
(lp952
I1
ag935
asS'd:/marmalade/6.1/modules/iwresmanager/h/IwResHandler.h'
p953
(lp954
I1
ag935
assS'iwgx'
p955
(dp956
S'd:/marmalade/6.1/modules/iwgx/h/IwClip.inl'
p957
(lp958
I1
a(dp959
asS'd:/marmalade/6.1/modules/iwgx/h/IwGxPrint.h'
p960
(lp961
I1
ag959
asS'd:/marmalade/6.1/modules/iwgx/h/IwTPage.h'
p962
(lp963
I1
ag959
asS'd:/marmalade/6.1/modules/iwgx/h/IwGxSurface.h'
p964
(lp965
I1
ag959
asS'd:/marmalade/6.1/modules/iwgx/h/IwGxFuncTable.h'
p966
(lp967
I1
ag959
asS'd:/marmalade/6.1/modules/iwgx/h/IwGxTransformSW.h'
p968
(lp969
I1
ag959
asS'd:/marmalade/6.1/modules/iwgx/h/IwGxError.h'
p970
(lp971
I1
ag959
asS'd:/marmalade/6.1/modules/iwgx/h/IwColour.h'
p972
(lp973
I1
ag959
asS'd:/marmalade/6.1/modules/iwgx/h/IwDebugPrim.h'
p974
(lp975
I1
ag959
asS'd:/marmalade/6.1/modules/iwgx/h/IwGxShaderTechnique.h'
p976
(lp977
I1
ag959
asS'd:/marmalade/6.1/modules/iwgx/docs/iwgx.config.txt'
p978
(lp979
I1
ag959
asS'd:/marmalade/6.1/modules/iwgx/h/IwMatAnim.h'
p980
(lp981
I1
ag959
asS'd:/marmalade/6.1/modules/iwgx/h/IwMaterial.h'
p982
(lp983
I1
ag959
asS'd:/marmalade/6.1/modules/iwgx/h/IwGxMetrics.h'
p984
(lp985
I1
ag959
asS'd:/marmalade/6.1/modules/iwgx/iwgx.mkf'
p986
(lp987
I1
a(dp988
asS'd:/marmalade/6.1/modules/iwgx/h/IwFColour.h'
p989
(lp990
I1
ag959
asS'd:/marmalade/6.1/modules/iwgx/h/IwClip.h'
p991
(lp992
I1
ag959
asS'd:/marmalade/6.1/modules/iwgx/h/IwTexture.h'
p993
(lp994
I1
ag959
asS'd:/marmalade/6.1/modules/iwgx/h/IwGxDebug.h'
p995
(lp996
I1
ag959
asS'd:/marmalade/6.1/modules/iwgx/docs/iwgx_public.defines.txt'
p997
(lp998
I1
ag959
asS'd:/marmalade/6.1/modules/iwgx/h/IwGxTypes.h'
p999
(lp1000
I1
ag959
asS'd:/marmalade/6.1/modules/iwgx/h/IwGxState.h'
p1001
(lp1002
I1
ag959
asS'd:/marmalade/6.1/modules/iwgx/h/IwGx.h'
p1003
(lp1004
I1
ag959
asS'd:/marmalade/6.1/modules/iwgx/h/IwGxStream.h'
p1005
(lp1006
I1
ag959
asS'd:/marmalade/6.1/modules/iwgx/h/IwResHandlerMTL.h'
p1007
(lp1008
I1
ag959
assS'iwutil'
p1009
(dp1010
S'd:/marmalade/6.1/modules/iwutil/h/IwAllocator.h'
p1011
(lp1012
I1
a(dp1013
asS'd:/marmalade/6.1/modules/iwutil/h/IwMath.h'
p1014
(lp1015
I1
ag1013
asS'd:/marmalade/6.1/modules/iwutil/h/IwCopyingPtr.h'
p1016
(lp1017
I1
ag1013
asS'd:/marmalade/6.1/modules/iwutil/h/IwUtilInitTerm.h'
p1018
(lp1019
I1
ag1013
asS'd:/marmalade/6.1/modules/iwutil/h/IwEvent.h'
p1020
(lp1021
I1
ag1013
asS'd:/marmalade/6.1/modules/iwutil/h/IwRuntime.h'
p1022
(lp1023
I1
ag1013
asS'd:/marmalade/6.1/modules/iwutil/h/IwChar.h'
p1024
(lp1025
I1
ag1013
asS'd:/marmalade/6.1/modules/iwutil/h/IwMemory.h'
p1026
(lp1027
I1
ag1013
asS'd:/marmalade/6.1/modules/iwutil/h/IwProfileMenu.h'
p1028
(lp1029
I1
ag1013
asS'd:/marmalade/6.1/modules/iwutil/h/IwOptimiseSpeed.h'
p1030
(lp1031
I1
ag1013
asS'd:/marmalade/6.1/modules/iwutil/h/IwMemManagerDL.h'
p1032
(lp1033
I1
ag1013
asS'd:/marmalade/6.1/modules/iwutil/h/IwHashString.h'
p1034
(lp1035
I1
ag1013
asS'd:/marmalade/6.1/modules/iwutil/h/IwManagedList.h'
p1036
(lp1037
I1
ag1013
asS'd:/marmalade/6.1/modules/iwutil/h/IwSerialise.h'
p1038
(lp1039
I1
ag1013
asS'd:/marmalade/6.1/modules/iwutil/h/IwArray.h'
p1040
(lp1041
I1
ag1013
asS'd:/marmalade/6.1/modules/iwutil/h/IwBuffer.h'
p1042
(lp1043
I1
ag1013
asS'd:/marmalade/6.1/modules/iwutil/h/IwImage.h'
p1044
(lp1045
I1
ag1013
asS'd:/marmalade/6.1/modules/iwutil/h/IwUtil.h'
p1046
(lp1047
I1
ag1013
asS'd:/marmalade/6.1/modules/iwutil/h/IwString.h'
p1048
(lp1049
I1
ag1013
asS'd:/marmalade/6.1/modules/iwutil/h/IwFile.h'
p1050
(lp1051
I1
ag1013
asS'd:/marmalade/6.1/modules/iwutil/h/IwMenu.h'
p1052
(lp1053
I1
ag1013
asS'd:/marmalade/6.1/modules/iwutil/h/IwDivTable.h'
p1054
(lp1055
I1
ag1013
asS'd:/marmalade/6.1/modules/iwutil/h/IwTextParseable.h'
p1056
(lp1057
I1
ag1013
asS'd:/marmalade/6.1/modules/iwutil/h/IwTextParserITX.h'
p1058
(lp1059
I1
ag1013
asS'd:/marmalade/6.1/modules/iwutil/h/IwPath.h'
p1060
(lp1061
I1
ag1013
asS'd:/marmalade/6.1/modules/iwutil/h/IwSingleton.h'
p1062
(lp1063
I1
ag1013
asS'd:/marmalade/6.1/modules/iwutil/h/IwOptimiseSize.h'
p1064
(lp1065
I1
ag1013
asS'd:/marmalade/6.1/modules/iwutil/h/IwUncopyable.h'
p1066
(lp1067
I1
ag1013
asS'd:/marmalade/6.1/modules/iwutil/h/IwKeymap.h'
p1068
(lp1069
I1
ag1013
asS'd:/marmalade/6.1/modules/iwutil/h/IwManaged.h'
p1070
(lp1071
I1
ag1013
asS'd:/marmalade/6.1/modules/iwutil/h/IwOptimiseARM.h'
p1072
(lp1073
I1
ag1013
asS'd:/marmalade/6.1/modules/iwutil/h/IwMemBucketHelpers.h'
p1074
(lp1075
I1
ag1013
asS'd:/marmalade/6.1/modules/iwutil/h/IwTextParser.h'
p1076
(lp1077
I1
ag1013
asS'd:/marmalade/6.1/modules/iwutil/h/IwCore.h'
p1078
(lp1079
I1
ag1013
asS'd:/marmalade/6.1/modules/iwutil/h/IwUTF8.h'
p1080
(lp1081
I1
ag1013
asS'd:/marmalade/6.1/modules/iwutil/h/IwClassFactory.h'
p1082
(lp1083
I1
ag1013
asS'd:/marmalade/6.1/modules/iwutil/h/IwList.h'
p1084
(lp1085
I1
ag1013
asS'd:/marmalade/6.1/modules/iwutil/iwutil.mkf'
p1086
(lp1087
I1
a(dp1088
asS'd:/marmalade/6.1/modules/iwutil/h/IwResource.h'
p1089
(lp1090
I1
ag1013
asS'd:/marmalade/6.1/modules/iwutil/h/IwMemBucket.h'
p1091
(lp1092
I1
ag1013
asS'd:/marmalade/6.1/modules/iwutil/h/IwFibre.h'
p1093
(lp1094
I1
ag1013
asS'd:/marmalade/6.1/modules/iwutil/h/IwVariableBitField.h'
p1095
(lp1096
I1
ag1013
asS'd:/marmalade/6.1/modules/iwutil/h/IwOptimiseThumb.h'
p1097
(lp1098
I1
ag1013
asS'd:/marmalade/6.1/modules/iwutil/h/IwDivide.h'
p1099
(lp1100
I1
ag1013
asS'd:/marmalade/6.1/modules/iwutil/h/IwAutoFile.h'
p1101
(lp1102
I1
ag1013
asS'd:/marmalade/6.1/modules/iwutil/h/IwRandom.h'
p1103
(lp1104
I1
ag1013
asS'd:/marmalade/6.1/modules/iwutil/h/IwImageHelper.h'
p1105
(lp1106
I1
ag1013
asS'd:/marmalade/6.1/modules/iwutil/h/IwDebug.h'
p1107
(lp1108
I1
ag1013
asS'd:/marmalade/6.1/modules/iwutil/h/IwTypes.h'
p1109
(lp1110
I1
ag1013
asS'd:/marmalade/6.1/modules/iwutil/docs/iwutil.config.txt'
p1111
(lp1112
I1
ag1013
asssS'(zlib)'
p1113
(dp1114
Vc:/users/dreambit/appdata/roaming/marmalade/packages/6.1.1/zlib_1.2.4/h/zconf.h
p1115
(lp1116
I1
a(dp1117
asVc:/users/dreambit/appdata/roaming/marmalade/packages/6.1.1/zlib_1.2.4/h/zlib.h
p1118
(lp1119
I1
ag1117
asVc:/users/dreambit/appdata/roaming/marmalade/packages/6.1.1/zlib_1.2.4/zlib.mkf
p1120
(lp1121
I1
a(dp1122
asssS'files'
p1123
(dp1124
S'IwGxFontPreparedData.h'
p1125
g237
(cmkb_main
File
p1126
g239
Ntp1127
Rp1128
(dp1129
S'flags'
p1130
g845
sS'group'
p1131
(lp1132
S"'Marmalade Studio'"
p1133
ag841
asg267
g843
sbsS'iterator'
p1134
g237
(g1126
g239
Ntp1135
Rp1136
(dp1137
g1130
(dp1138
sg1131
(lp1139
S"'Marmalade System (S3E)'"
p1140
aS'stdc headers'
p1141
aS'c++'
p1142
asg267
S'd:/marmalade/6.1/s3e/h/std/c++/iterator'
p1143
sbsS'IwGeomPlane.h'
p1144
g237
(g1126
g239
Ntp1145
Rp1146
(dp1147
g1130
g867
sg1131
(lp1148
S"'Marmalade Studio'"
p1149
ag863
asg267
g911
sbsS's3e.h'
p1150
g237
(g1126
g239
Ntp1151
Rp1152
(dp1153
g1130
g1138
sg1131
(lp1154
g1140
asg267
S'd:/marmalade/6.1/s3e/h/s3e.h'
p1155
sbsS'errno.h'
p1156
g237
(g1126
g239
Ntp1157
Rp1158
(dp1159
g1130
g1138
sg1131
(lp1160
g1140
aS'stdc headers'
p1161
asg267
S'd:/marmalade/6.1/s3e/h/std/errno.h'
p1162
sbsS'IwSingleton.h'
p1163
g237
(g1126
g239
Ntp1164
Rp1165
(dp1166
g1130
g1013
sg1131
(lp1167
S"'Marmalade Studio'"
p1168
ag1009
asg267
g1062
sbsS'dlfcn.h'
p1169
g237
(g1126
g239
Ntp1170
Rp1171
(dp1172
g1130
g1138
sg1131
g1160
sg267
S'd:/marmalade/6.1/s3e/h/std/dlfcn.h'
p1173
sbsS'stdio_streambuf'
p1174
g237
(g1126
g239
Ntp1175
Rp1176
(dp1177
g1130
g1138
sg1131
g1139
sg267
S'd:/marmalade/6.1/s3e/h/std/c++/stdio_streambuf'
p1178
sbsS'sched.h'
p1179
g237
(g1126
g239
Ntp1180
Rp1181
(dp1182
g1130
g1138
sg1131
g1160
sg267
S'd:/marmalade/6.1/s3e/h/std/sched.h'
p1183
sbsS'IwGeomFMat2D.h'
p1184
g237
(g1126
g239
Ntp1185
Rp1186
(dp1187
g1130
g867
sg1131
g1148
sg267
g923
sbsS's3eExt.h'
p1188
g237
(g1126
g239
Ntp1189
Rp1190
(dp1191
g1130
g1138
sg1131
g1154
sg267
S'd:/marmalade/6.1/s3e/h/s3eExt.h'
p1192
sbsS'grp.h'
p1193
g237
(g1126
g239
Ntp1194
Rp1195
(dp1196
g1130
g1138
sg1131
g1160
sg267
S'd:/marmalade/6.1/s3e/h/std/grp.h'
p1197
sbsS'list'
p1198
g237
(g1126
g239
Ntp1199
Rp1200
(dp1201
g1130
g1138
sg1131
g1139
sg267
S'd:/marmalade/6.1/s3e/h/std/c++/list'
p1202
sbsS'istream'
p1203
g237
(g1126
g239
Ntp1204
Rp1205
(dp1206
g1130
g1138
sg1131
g1139
sg267
S'd:/marmalade/6.1/s3e/h/std/c++/istream'
p1207
sbsVjpeglib.h
p1208
g237
(g1126
g239
Ntp1209
Rp1210
(dp1211
g1130
g775
sg1131
(lp1212
g771
asg267
g799
sbsS'iw2d_public.defines.txt'
p1213
g237
(g1126
g239
Ntp1214
Rp1215
(dp1216
g1130
g836
sg1131
(lp1217
S"'Marmalade Studio'"
p1218
ag829
asg267
g839
sbsS'iostream.h'
p1219
g237
(g1126
g239
Ntp1220
Rp1221
(dp1222
g1130
g1138
sg1131
g1139
sg267
S'd:/marmalade/6.1/s3e/h/std/c++/iostream.h'
p1223
sbsS'string'
p1224
g237
(g1126
g239
Ntp1225
Rp1226
(dp1227
g1130
g1138
sg1131
g1139
sg267
S'd:/marmalade/6.1/s3e/h/std/c++/string'
p1228
sbsS'IwMemory.h'
p1229
g237
(g1126
g239
Ntp1230
Rp1231
(dp1232
g1130
g1013
sg1131
g1167
sg267
g1026
sbsS'IwGL.h'
p1233
g237
(g1126
g239
Ntp1234
Rp1235
(dp1236
g1130
g824
sg1131
(lp1237
S"'Marmalade Studio'"
p1238
ag817
asg267
g822
sbsS'iw2d.config.txt'
p1239
g237
(g1126
g239
Ntp1240
Rp1241
(dp1242
g1130
g836
sg1131
g1217
sg267
g834
sbsS'iomanip'
p1243
g237
(g1126
g239
Ntp1244
Rp1245
(dp1246
g1130
g1138
sg1131
g1139
sg267
S'd:/marmalade/6.1/s3e/h/std/c++/iomanip'
p1247
sbsS'iwgeom.mkf'
p1248
g237
(g1126
g239
Ntp1249
Rp1250
(dp1251
g1130
g870
sg1131
g1148
sg267
g868
sbsS'IwGxError.h'
p1252
g237
(g1126
g239
Ntp1253
Rp1254
(dp1255
g1130
g959
sg1131
(lp1256
S"'Marmalade Studio'"
p1257
ag955
asg267
g970
sbsS'IwGeom.h'
p1258
g237
(g1126
g239
Ntp1259
Rp1260
(dp1261
g1130
g867
sg1131
g1148
sg267
g871
sbsS'IwGeomVec4.h'
p1262
g237
(g1126
g239
Ntp1263
Rp1264
(dp1265
g1130
g867
sg1131
g1148
sg267
g905
sbsS'dir.h'
p1266
g237
(g1126
g239
Ntp1267
Rp1268
(dp1269
g1130
g1138
sg1131
(lp1270
g1140
aS'stdc headers'
p1271
aS'sys'
p1272
asg267
S'd:/marmalade/6.1/s3e/h/std/sys/dir.h'
p1273
sbsS'locale.h'
p1274
g237
(g1126
g239
Ntp1275
Rp1276
(dp1277
g1130
g1138
sg1131
g1160
sg267
S'd:/marmalade/6.1/s3e/h/std/locale.h'
p1278
sbsS'vector'
p1279
g237
(g1126
g239
Ntp1280
Rp1281
(dp1282
g1130
g1138
sg1131
g1139
sg267
S'd:/marmalade/6.1/s3e/h/std/c++/vector'
p1283
sbsS'IwManaged.h'
p1284
g237
(g1126
g239
Ntp1285
Rp1286
(dp1287
g1130
g1013
sg1131
g1167
sg267
g1070
sbsS's3eCompass.h'
p1288
g237
(g1126
g239
Ntp1289
Rp1290
(dp1291
g1130
g1138
sg1131
g1154
sg267
S'd:/marmalade/6.1/s3e/h/s3eCompass.h'
p1292
sbsVcderror.h
p1293
g237
(g1126
g239
Ntp1294
Rp1295
(dp1296
g1130
g775
sg1131
g1212
sg267
g782
sbsS'climits'
p1297
g237
(g1126
g239
Ntp1298
Rp1299
(dp1300
g1130
g1138
sg1131
g1139
sg267
S'd:/marmalade/6.1/s3e/h/std/c++/climits'
p1301
sbsS's3eVibra.h'
p1302
g237
(g1126
g239
Ntp1303
Rp1304
(dp1305
g1130
g1138
sg1131
g1154
sg267
S'd:/marmalade/6.1/s3e/h/s3eVibra.h'
p1306
sbsVjversion.h
p1307
g237
(g1126
g239
Ntp1308
Rp1309
(dp1310
g1130
g775
sg1131
g1212
sg267
g778
sbsS'fnmatch.h'
p1311
g237
(g1126
g239
Ntp1312
Rp1313
(dp1314
g1130
g1138
sg1131
g1160
sg267
S'd:/marmalade/6.1/s3e/h/std/fnmatch.h'
p1315
sbsS'IwGxState.h'
p1316
g237
(g1126
g239
Ntp1317
Rp1318
(dp1319
g1130
g959
sg1131
g1256
sg267
g1001
sbsS's3eAudio.h'
p1320
g237
(g1126
g239
Ntp1321
Rp1322
(dp1323
g1130
g1138
sg1131
g1154
sg267
S'd:/marmalade/6.1/s3e/h/s3eAudio.h'
p1324
sbsS's3eSurface.h'
p1325
g237
(g1126
g239
Ntp1326
Rp1327
(dp1328
g1130
g1138
sg1131
g1154
sg267
S'd:/marmalade/6.1/s3e/h/s3eSurface.h'
p1329
sbsS'new'
p1330
g237
(g1126
g239
Ntp1331
Rp1332
(dp1333
g1130
g1138
sg1131
g1139
sg267
S'd:/marmalade/6.1/s3e/h/std/c++/new'
p1334
sbsS's3eWindow.h'
p1335
g237
(g1126
g239
Ntp1336
Rp1337
(dp1338
g1130
g1138
sg1131
(lp1339
g1140
aS'Extensions'
p1340
asg267
S'd:/marmalade/6.1/s3e/h/ext/s3eWindow.h'
p1341
sbsS'IwBuffer.h'
p1342
g237
(g1126
g239
Ntp1343
Rp1344
(dp1345
g1130
g1013
sg1131
g1167
sg267
g1042
sbsS's3eOSExec.h'
p1346
g237
(g1126
g239
Ntp1347
Rp1348
(dp1349
g1130
g1138
sg1131
g1339
sg267
S'd:/marmalade/6.1/s3e/h/ext/s3eOSExec.h'
p1350
sbsS'IwGxTransformSW.h'
p1351
g237
(g1126
g239
Ntp1352
Rp1353
(dp1354
g1130
g959
sg1131
g1256
sg267
g968
sbsS'unistd.h'
p1355
g237
(g1126
g239
Ntp1356
Rp1357
(dp1358
g1130
g1138
sg1131
g1160
sg267
S'd:/marmalade/6.1/s3e/h/std/unistd.h'
p1359
sbsS'iwgxfont.config.txt'
p1360
g237
(g1126
g239
Ntp1361
Rp1362
(dp1363
g1130
g845
sg1131
g1132
sg267
g851
sbsS'gl2platform.h'
p1364
g237
(g1126
g239
Ntp1365
Rp1366
(dp1367
g1130
g1138
sg1131
(lp1368
g1140
aS'GL'
p1369
aS'GLES 2.0'
p1370
asg267
S'd:/marmalade/6.1/s3e/h/GLES2/gl2platform.h'
p1371
sbsS'IwResManagerClass.h'
p1372
g237
(g1126
g239
Ntp1373
Rp1374
(dp1375
g1130
g935
sg1131
(lp1376
g815
ag931
asg267
g942
sbsS'queue'
p1377
g237
(g1126
g239
Ntp1378
Rp1379
(dp1380
g1130
g1138
sg1131
g1139
sg267
S'd:/marmalade/6.1/s3e/h/std/c++/queue'
p1381
sbsS'time_1.h'
p1382
g237
(g1126
g239
Ntp1383
Rp1384
(dp1385
g1130
g1138
sg1131
g1270
sg267
S'd:/marmalade/6.1/s3e/h/std/sys/time.h'
p1386
sbsS'Iw2D.h'
p1387
g237
(g1126
g239
Ntp1388
Rp1389
(dp1390
g1130
g836
sg1131
g1217
sg267
g837
sbsS'IwGeomVec2.h'
p1391
g237
(g1126
g239
Ntp1392
Rp1393
(dp1394
g1130
g867
sg1131
g1148
sg267
g887
sbsS's3eDevice.h'
p1395
g237
(g1126
g239
Ntp1396
Rp1397
(dp1398
g1130
g1138
sg1131
g1154
sg267
S'd:/marmalade/6.1/s3e/h/s3eDevice.h'
p1399
sbsS'malloc.h'
p1400
g237
(g1126
g239
Ntp1401
Rp1402
(dp1403
g1130
g1138
sg1131
g1160
sg267
S'd:/marmalade/6.1/s3e/h/std/malloc.h'
p1404
sbsS'stdarg.h'
p1405
g237
(g1126
g239
Ntp1406
Rp1407
(dp1408
g1130
g1138
sg1131
g1160
sg267
S'd:/marmalade/6.1/s3e/h/std/stdarg.h'
p1409
sbsS'IwGeomCore.h'
p1410
g237
(g1126
g239
Ntp1411
Rp1412
(dp1413
g1130
g867
sg1131
g1148
sg267
g897
sbsS'endian.h'
p1414
g237
(g1126
g239
Ntp1415
Rp1416
(dp1417
g1130
g1138
sg1131
g1160
sg267
S'd:/marmalade/6.1/s3e/h/std/endian.h'
p1418
sbsS'glob.h'
p1419
g237
(g1126
g239
Ntp1420
Rp1421
(dp1422
g1130
g1138
sg1131
g1160
sg267
S'd:/marmalade/6.1/s3e/h/std/glob.h'
p1423
sbsS'fstream'
p1424
g237
(g1126
g239
Ntp1425
Rp1426
(dp1427
g1130
g1138
sg1131
g1139
sg267
S'd:/marmalade/6.1/s3e/h/std/c++/fstream'
p1428
sbsS's3eCamera.h'
p1429
g237
(g1126
g239
Ntp1430
Rp1431
(dp1432
g1130
g1138
sg1131
g1154
sg267
S'd:/marmalade/6.1/s3e/h/s3eCamera.h'
p1433
sbsVjconfig.h
p1434
g237
(g1126
g239
Ntp1435
Rp1436
(dp1437
g1130
g775
sg1131
g1212
sg267
g795
sbsS'memory'
p1438
g237
(g1126
g239
Ntp1439
Rp1440
(dp1441
g1130
g1138
sg1131
g1139
sg267
S'd:/marmalade/6.1/s3e/h/std/c++/memory'
p1442
sbsS'egl.h'
p1443
g237
(g1126
g239
Ntp1444
Rp1445
(dp1446
g1130
g1138
sg1131
(lp1447
g1140
aS'GL'
p1448
aS'EGL'
p1449
asg267
S'd:/marmalade/6.1/s3e/h/EGL/egl.h'
p1450
sbsS'IwClip.inl'
p1451
g237
(g1126
g239
Ntp1452
Rp1453
(dp1454
g1130
g959
sg1131
g1256
sg267
g957
sbsS'IwMemManagerDL.h'
p1455
g237
(g1126
g239
Ntp1456
Rp1457
(dp1458
g1130
g1013
sg1131
g1167
sg267
g1032
sbsS'deque'
p1459
g237
(g1126
g239
Ntp1460
Rp1461
(dp1462
g1130
g1138
sg1131
g1139
sg267
S'd:/marmalade/6.1/s3e/h/std/c++/deque'
p1463
sbsS'IwString.h'
p1464
g237
(g1126
g239
Ntp1465
Rp1466
(dp1467
g1130
g1013
sg1131
g1167
sg267
g1048
sbsS'cctype'
p1468
g237
(g1126
g239
Ntp1469
Rp1470
(dp1471
g1130
g1138
sg1131
g1139
sg267
S'd:/marmalade/6.1/s3e/h/std/c++/cctype'
p1472
sbsS'iwutil.mkf'
p1473
g237
(g1126
g239
Ntp1474
Rp1475
(dp1476
g1130
g1088
sg1131
g1167
sg267
g1086
sbsS'csignal'
p1477
g237
(g1126
g239
Ntp1478
Rp1479
(dp1480
g1130
g1138
sg1131
g1139
sg267
S'd:/marmalade/6.1/s3e/h/std/c++/csignal'
p1481
sbsS'float.h'
p1482
g237
(g1126
g239
Ntp1483
Rp1484
(dp1485
g1130
g1138
sg1131
g1160
sg267
S'd:/marmalade/6.1/s3e/h/std/float.h'
p1486
sbsS'pthread_alloc'
p1487
g237
(g1126
g239
Ntp1488
Rp1489
(dp1490
g1130
g1138
sg1131
g1139
sg267
S'd:/marmalade/6.1/s3e/h/std/c++/pthread_alloc'
p1491
sbsS'getopt.h'
p1492
g237
(g1126
g239
Ntp1493
Rp1494
(dp1495
g1130
g1138
sg1131
g1160
sg267
S'd:/marmalade/6.1/s3e/h/std/getopt.h'
p1496
sbsS'IwOptimiseARM.h'
p1497
g237
(g1126
g239
Ntp1498
Rp1499
(dp1500
g1130
g1013
sg1131
g1167
sg267
g1072
sbsS'times.h'
p1501
g237
(g1126
g239
Ntp1502
Rp1503
(dp1504
g1130
g1138
sg1131
g1270
sg267
S'd:/marmalade/6.1/s3e/h/std/sys/times.h'
p1505
sbsS'IwGeomFSphere.h'
p1506
g237
(g1126
g239
Ntp1507
Rp1508
(dp1509
g1130
g867
sg1131
g1148
sg267
g919
sbsS'game.h'
p1510
g237
(g1126
g239
Ntp1511
Rp1512
(dp1513
g1130
g756
sg1131
(lp1514
g752
asg267
g757
sbsS'IwTypes.h'
p1515
g237
(g1126
g239
Ntp1516
Rp1517
(dp1518
g1130
g1013
sg1131
g1167
sg267
g1109
sbsS'IwGxMetrics.h'
p1519
g237
(g1126
g239
Ntp1520
Rp1521
(dp1522
g1130
g959
sg1131
g1256
sg267
g984
sbsS's3eCompression.h'
p1523
g237
(g1126
g239
Ntp1524
Rp1525
(dp1526
g1130
g1138
sg1131
g1154
sg267
S'd:/marmalade/6.1/s3e/h/s3eCompression.h'
p1527
sbsS'langinfo.h'
p1528
g237
(g1126
g239
Ntp1529
Rp1530
(dp1531
g1130
g1138
sg1131
g1160
sg267
S'd:/marmalade/6.1/s3e/h/std/langinfo.h'
p1532
sbsS's3edebugHeap.h'
p1533
g237
(g1126
g239
Ntp1534
Rp1535
(dp1536
g1130
g1138
sg1131
g1339
sg267
S'd:/marmalade/6.1/s3e/h/ext/s3edebugHeap.h'
p1537
sbsS'AirplayVersion.h'
p1538
g237
(g1126
g239
Ntp1539
Rp1540
(dp1541
g1130
g1138
sg1131
g1154
sg267
S'd:/marmalade/6.1/s3e/h/AirplayVersion.h'
p1542
sbsS'gl2extimg.h'
p1543
g237
(g1126
g239
Ntp1544
Rp1545
(dp1546
g1130
g1138
sg1131
g1368
sg267
S'd:/marmalade/6.1/s3e/h/GLES2/gl2extimg.h'
p1547
sbsS'app.config.txt'
p1548
g237
(g1126
g239
Ntp1549
Rp1550
(dp1551
g1130
(dp1552
sg1131
g4
sg267
S'c:/Users/dreambit/Documents/memorygame/data/app.config.txt'
p1553
sbsS'IwGeomSqrt.h'
p1554
g237
(g1126
g239
Ntp1555
Rp1556
(dp1557
g1130
g867
sg1131
g1148
sg267
g915
sbsVtiniconv_int.h
p1558
g237
(g1126
g239
Ntp1559
Rp1560
(dp1561
g1130
g809
sg1131
(lp1562
g805
asg267
g810
sbsS'syslog.h'
p1563
g237
(g1126
g239
Ntp1564
Rp1565
(dp1566
g1130
g1138
sg1131
g1160
sg267
S'd:/marmalade/6.1/s3e/h/std/syslog.h'
p1567
sbsS'IwGxFontTypes.h'
p1568
g237
(g1126
g239
Ntp1569
Rp1570
(dp1571
g1130
g845
sg1131
g1132
sg267
g861
sbsS'IwGeomFIntersect.h'
p1572
g237
(g1126
g239
Ntp1573
Rp1574
(dp1575
g1130
g867
sg1131
g1148
sg267
g899
sbsS'hash_map'
p1576
g237
(g1126
g239
Ntp1577
Rp1578
(dp1579
g1130
g1138
sg1131
g1139
sg267
S'd:/marmalade/6.1/s3e/h/std/c++/hash_map'
p1580
sbsS's3e.mkf'
p1581
g237
(g1126
g239
Ntp1582
Rp1583
(dp1584
g1130
(dp1585
sg1131
g1154
sg267
S'd:/marmalade/6.1/s3e/s3e.mkf'
p1586
sbsS's3eOSReadString.h'
p1587
g237
(g1126
g239
Ntp1588
Rp1589
(dp1590
g1130
g1138
sg1131
g1339
sg267
S'd:/marmalade/6.1/s3e/h/ext/s3eOSReadString.h'
p1591
sbsS'map'
p1592
g237
(g1126
g239
Ntp1593
Rp1594
(dp1595
g1130
g1138
sg1131
g1139
sg267
S'd:/marmalade/6.1/s3e/h/std/c++/map'
p1596
sbsS'IwOptimiseSpeed.h'
p1597
g237
(g1126
g239
Ntp1598
Rp1599
(dp1600
g1130
g1013
sg1131
g1167
sg267
g1030
sbsS'msl_string.h'
p1601
g237
(g1126
g239
Ntp1602
Rp1603
(dp1604
g1130
g1138
sg1131
g1139
sg267
S'd:/marmalade/6.1/s3e/h/std/c++/msl_string.h'
p1605
sbsS'select.h'
p1606
g237
(g1126
g239
Ntp1607
Rp1608
(dp1609
g1130
g1138
sg1131
g1270
sg267
S'd:/marmalade/6.1/s3e/h/std/sys/select.h'
p1610
sbsVzlib.mkf
p1611
g237
(g1126
g239
Ntp1612
Rp1613
(dp1614
g1130
g1122
sg1131
(lp1615
g1113
asg267
g1120
sbsS'signal.h'
p1616
g237
(g1126
g239
Ntp1617
Rp1618
(dp1619
g1130
g1138
sg1131
g1160
sg267
S'd:/marmalade/6.1/s3e/h/std/signal.h'
p1620
sbsS'sigcontext.h'
p1621
g237
(g1126
g239
Ntp1622
Rp1623
(dp1624
g1130
g1138
sg1131
g1160
sg267
S'd:/marmalade/6.1/s3e/h/std/sigcontext.h'
p1625
sbsVlibpng.mkf
p1626
g237
(g1126
g239
Ntp1627
Rp1628
(dp1629
g1130
g770
sg1131
(lp1630
g761
asg267
g768
sbsS's3eClipboard.h'
p1631
g237
(g1126
g239
Ntp1632
Rp1633
(dp1634
g1130
g1138
sg1131
g1154
sg267
S'd:/marmalade/6.1/s3e/h/s3eClipboard.h'
p1635
sbsS'IwGxFuncTable.h'
p1636
g237
(g1126
g239
Ntp1637
Rp1638
(dp1639
g1130
g959
sg1131
g1256
sg267
g966
sbsS'IwResHandlerGROUP.h'
p1640
g237
(g1126
g239
Ntp1641
Rp1642
(dp1643
g1130
g935
sg1131
g1376
sg267
g933
sbsS's3eDebug.h'
p1644
g237
(g1126
g239
Ntp1645
Rp1646
(dp1647
g1130
g1138
sg1131
g1154
sg267
S'd:/marmalade/6.1/s3e/h/s3eDebug.h'
p1648
sbsS'socket.h'
p1649
g237
(g1126
g239
Ntp1650
Rp1651
(dp1652
g1130
g1138
sg1131
g1270
sg267
S'd:/marmalade/6.1/s3e/h/std/sys/socket.h'
p1653
sbsS'glext.h'
p1654
g237
(g1126
g239
Ntp1655
Rp1656
(dp1657
g1130
g1138
sg1131
(lp1658
g1140
aS'GL'
p1659
aS'GLES 1.x'
p1660
asg267
S'd:/marmalade/6.1/s3e/h/GLES/glext.h'
p1661
sbsS'typeinfo.h'
p1662
g237
(g1126
g239
Ntp1663
Rp1664
(dp1665
g1130
g1138
sg1131
g1139
sg267
S'd:/marmalade/6.1/s3e/h/std/c++/typeinfo.h'
p1666
sbsS'typeinfo'
p1667
g237
(g1126
g239
Ntp1668
Rp1669
(dp1670
g1130
g1138
sg1131
g1139
sg267
S'd:/marmalade/6.1/s3e/h/std/c++/typeinfo'
p1671
sbsS'fstream.h'
p1672
g237
(g1126
g239
Ntp1673
Rp1674
(dp1675
g1130
g1138
sg1131
g1139
sg267
S'd:/marmalade/6.1/s3e/h/std/c++/fstream.h'
p1676
sbsS's3ePointer.h'
p1677
g237
(g1126
g239
Ntp1678
Rp1679
(dp1680
g1130
g1138
sg1131
g1154
sg267
S'd:/marmalade/6.1/s3e/h/s3ePointer.h'
p1681
sbsS'iw2d.mkf'
p1682
g237
(g1126
g239
Ntp1683
Rp1684
(dp1685
g1130
g833
sg1131
g1217
sg267
g831
sbsS's3eGL.h'
p1686
g237
(g1126
g239
Ntp1687
Rp1688
(dp1689
g1130
g1138
sg1131
g1154
sg267
S'd:/marmalade/6.1/s3e/h/s3eGL.h'
p1690
sbsS'IwGeomFVec2.h'
p1691
g237
(g1126
g239
Ntp1692
Rp1693
(dp1694
g1130
g867
sg1131
g1148
sg267
g875
sbsS'IwGeomSVec4.h'
p1695
g237
(g1126
g239
Ntp1696
Rp1697
(dp1698
g1130
g867
sg1131
g1148
sg267
g895
sbsS'slist'
p1699
g237
(g1126
g239
Ntp1700
Rp1701
(dp1702
g1130
g1138
sg1131
g1139
sg267
S'd:/marmalade/6.1/s3e/h/std/c++/slist'
p1703
sbsS'poll.h'
p1704
g237
(g1126
g239
Ntp1705
Rp1706
(dp1707
g1130
g1138
sg1131
g1160
sg267
S'd:/marmalade/6.1/s3e/h/std/poll.h'
p1708
sbsS'IwMatAnim.h'
p1709
g237
(g1126
g239
Ntp1710
Rp1711
(dp1712
g1130
g959
sg1131
g1256
sg267
g980
sbsS'IwGeomFVec4.h'
p1713
g237
(g1126
g239
Ntp1714
Rp1715
(dp1716
g1130
g867
sg1131
g1148
sg267
g877
sbsS'IwGx.h'
p1717
g237
(g1126
g239
Ntp1718
Rp1719
(dp1720
g1130
g959
sg1131
g1256
sg267
g1003
sbsS'valarray'
p1721
g237
(g1126
g239
Ntp1722
Rp1723
(dp1724
g1130
g1138
sg1131
g1139
sg267
S'd:/marmalade/6.1/s3e/h/std/c++/valarray'
p1725
sbsS'iosfwd'
p1726
g237
(g1126
g239
Ntp1727
Rp1728
(dp1729
g1130
g1138
sg1131
g1139
sg267
S'd:/marmalade/6.1/s3e/h/std/c++/iosfwd'
p1730
sbsS'gl2.h'
p1731
g237
(g1126
g239
Ntp1732
Rp1733
(dp1734
g1130
g1138
sg1131
g1368
sg267
S'd:/marmalade/6.1/s3e/h/GLES2/gl2.h'
p1735
sbsS'IwManagedList.h'
p1736
g237
(g1126
g239
Ntp1737
Rp1738
(dp1739
g1130
g1013
sg1131
g1167
sg267
g1036
sbsS'stdiostream.h'
p1740
g237
(g1126
g239
Ntp1741
Rp1742
(dp1743
g1130
g1138
sg1131
g1139
sg267
S'd:/marmalade/6.1/s3e/h/std/c++/stdiostream.h'
p1744
sbsS'mem.h'
p1745
g237
(g1126
g239
Ntp1746
Rp1747
(dp1748
g1130
g1138
sg1131
g1139
sg267
S'd:/marmalade/6.1/s3e/h/std/c++/mem.h'
p1749
sbsS'main.cpp'
p1750
g237
(g1126
g239
Ntp1751
Rp1752
(dp1753
g1130
g756
sg1131
g1514
sg267
g759
sbsVzconf.h
p1754
g237
(g1126
g239
Ntp1755
Rp1756
(dp1757
g1130
g1117
sg1131
g1615
sg267
g1115
sbsS's3e.config.txt'
p1758
g237
(g1126
g239
Ntp1759
Rp1760
(dp1761
g1130
g1138
sg1131
g1154
sg267
S'd:/marmalade/6.1/s3e/s3e.config.txt'
p1762
sbsS'numeric'
p1763
g237
(g1126
g239
Ntp1764
Rp1765
(dp1766
g1130
g1138
sg1131
g1139
sg267
S'd:/marmalade/6.1/s3e/h/std/c++/numeric'
p1767
sbsS'utime.h'
p1768
g237
(g1126
g239
Ntp1769
Rp1770
(dp1771
g1130
g1138
sg1131
g1160
sg267
S'd:/marmalade/6.1/s3e/h/std/utime.h'
p1772
sbsVjdhuff.h
p1773
g237
(g1126
g239
Ntp1774
Rp1775
(dp1776
g1130
g775
sg1131
g1212
sg267
g801
sbsS'IwGxStream.h'
p1777
g237
(g1126
g239
Ntp1778
Rp1779
(dp1780
g1130
g959
sg1131
g1256
sg267
g1005
sbsS'IwImage.h'
p1781
g237
(g1126
g239
Ntp1782
Rp1783
(dp1784
g1130
g1013
sg1131
g1167
sg267
g1044
sbsS's3eImagePicker.h'
p1785
g237
(g1126
g239
Ntp1786
Rp1787
(dp1788
g1130
g1138
sg1131
g1339
sg267
S'd:/marmalade/6.1/s3e/h/ext/s3eImagePicker.h'
p1789
sbsS'IwTextParserITX.h'
p1790
g237
(g1126
g239
Ntp1791
Rp1792
(dp1793
g1130
g1013
sg1131
g1167
sg267
g1058
sbsS'stdlib.h'
p1794
g237
(g1126
g239
Ntp1795
Rp1796
(dp1797
g1130
g1138
sg1131
g1160
sg267
S'd:/marmalade/6.1/s3e/h/std/stdlib.h'
p1798
sbsS'IwCopyingPtr.h'
p1799
g237
(g1126
g239
Ntp1800
Rp1801
(dp1802
g1130
g1013
sg1131
g1167
sg267
g1016
sbsS'iostream'
p1803
g237
(g1126
g239
Ntp1804
Rp1805
(dp1806
g1130
g1138
sg1131
g1139
sg267
S'd:/marmalade/6.1/s3e/h/std/c++/iostream'
p1807
sbsVpng.h
p1808
g237
(g1126
g239
Ntp1809
Rp1810
(dp1811
g1130
g765
sg1131
g1630
sg267
g763
sbsS'stddef.h'
p1812
g237
(g1126
g239
Ntp1813
Rp1814
(dp1815
g1130
g1138
sg1131
g1160
sg267
S'd:/marmalade/6.1/s3e/h/std/stddef.h'
p1816
sbsS'setjmp_win32.h'
p1817
g237
(g1126
g239
Ntp1818
Rp1819
(dp1820
g1130
g1138
sg1131
g1160
sg267
S'd:/marmalade/6.1/s3e/h/std/setjmp_win32.h'
p1821
sbsS'IwGxPrint.h'
p1822
g237
(g1126
g239
Ntp1823
Rp1824
(dp1825
g1130
g959
sg1131
g1256
sg267
g960
sbsS'IwGeomSVec2.h'
p1826
g237
(g1126
g239
Ntp1827
Rp1828
(dp1829
g1130
g867
sg1131
g1148
sg267
g901
sbsS'streambuf.h'
p1830
g237
(g1126
g239
Ntp1831
Rp1832
(dp1833
g1130
g1138
sg1131
g1139
sg267
S'd:/marmalade/6.1/s3e/h/std/c++/streambuf.h'
p1834
sbsS'IwGeomFPlane.h'
p1835
g237
(g1126
g239
Ntp1836
Rp1837
(dp1838
g1130
g867
sg1131
g1148
sg267
g873
sbsS'wchar.h'
p1839
g237
(g1126
g239
Ntp1840
Rp1841
(dp1842
g1130
g1138
sg1131
g1160
sg267
S'd:/marmalade/6.1/s3e/h/std/wchar.h'
p1843
sbsS's3eCameraCapture.h'
p1844
g237
(g1126
g239
Ntp1845
Rp1846
(dp1847
g1130
g1138
sg1131
g1339
sg267
S'd:/marmalade/6.1/s3e/h/ext/s3eCameraCapture.h'
p1848
sbsS'eglext.h'
p1849
g237
(g1126
g239
Ntp1850
Rp1851
(dp1852
g1130
g1138
sg1131
g1447
sg267
S'd:/marmalade/6.1/s3e/h/EGL/eglext.h'
p1853
sbsS'IwResHandlerImage.h'
p1854
g237
(g1126
g239
Ntp1855
Rp1856
(dp1857
g1130
g935
sg1131
g1376
sg267
g938
sbsS'strstream.h'
p1858
g237
(g1126
g239
Ntp1859
Rp1860
(dp1861
g1130
g1138
sg1131
g1139
sg267
S'd:/marmalade/6.1/s3e/h/std/c++/strstream.h'
p1862
sbsVtiniconv.h
p1863
g237
(g1126
g239
Ntp1864
Rp1865
(dp1866
g1130
g809
sg1131
g1562
sg267
g807
sbsS'IwGLExt.h'
p1867
g237
(g1126
g239
Ntp1868
Rp1869
(dp1870
g1130
g824
sg1131
g1237
sg267
g827
sbsS'app.icf'
p1871
g237
(g1126
g239
Ntp1872
Rp1873
(dp1874
g1130
(dp1875
sg1131
g4
sg267
S'c:/Users/dreambit/Documents/memorygame/data/app.icf'
p1876
sbsS'IwClassFactory.h'
p1877
g237
(g1126
g239
Ntp1878
Rp1879
(dp1880
g1130
g1013
sg1131
g1167
sg267
g1082
sbsS'file.h'
p1881
g237
(g1126
g239
Ntp1882
Rp1883
(dp1884
g1130
g1138
sg1131
g1270
sg267
S'd:/marmalade/6.1/s3e/h/std/sys/file.h'
p1885
sbsS'cstring'
p1886
g237
(g1126
g239
Ntp1887
Rp1888
(dp1889
g1130
g1138
sg1131
g1139
sg267
S'd:/marmalade/6.1/s3e/h/std/c++/cstring'
p1890
sbsS'iwutil.config.txt'
p1891
g237
(g1126
g239
Ntp1892
Rp1893
(dp1894
g1130
g1013
sg1131
g1167
sg267
g1111
sbsS's3eSMS.h'
p1895
g237
(g1126
g239
Ntp1896
Rp1897
(dp1898
g1130
g1138
sg1131
g1339
sg267
S'd:/marmalade/6.1/s3e/h/ext/s3eSMS.h'
p1899
sbsS'limits.h'
p1900
g237
(g1126
g239
Ntp1901
Rp1902
(dp1903
g1130
g1138
sg1131
g1160
sg267
S'd:/marmalade/6.1/s3e/h/std/limits.h'
p1904
sbsS'iwgl.config.txt'
p1905
g237
(g1126
g239
Ntp1906
Rp1907
(dp1908
g1130
g824
sg1131
g1237
sg267
g825
sbsS'iwgx_public.defines.txt'
p1909
g237
(g1126
g239
Ntp1910
Rp1911
(dp1912
g1130
g959
sg1131
g1256
sg267
g997
sbsS'IwMaterial.h'
p1913
g237
(g1126
g239
Ntp1914
Rp1915
(dp1916
g1130
g959
sg1131
g1256
sg267
g982
sbsS'IwGxSurface.h'
p1917
g237
(g1126
g239
Ntp1918
Rp1919
(dp1920
g1130
g959
sg1131
g1256
sg267
g964
sbsS's3eSocket.h'
p1921
g237
(g1126
g239
Ntp1922
Rp1923
(dp1924
g1130
g1138
sg1131
g1154
sg267
S'd:/marmalade/6.1/s3e/h/s3eSocket.h'
p1925
sbsS'IwAutoFile.h'
p1926
g237
(g1126
g239
Ntp1927
Rp1928
(dp1929
g1130
g1013
sg1131
g1167
sg267
g1101
sbsS'ipc.h'
p1930
g237
(g1126
g239
Ntp1931
Rp1932
(dp1933
g1130
g1138
sg1131
g1270
sg267
S'd:/marmalade/6.1/s3e/h/std/sys/ipc.h'
p1934
sbsS'poll_1.h'
p1935
g237
(g1126
g239
Ntp1936
Rp1937
(dp1938
g1130
g1138
sg1131
g1270
sg267
S'd:/marmalade/6.1/s3e/h/std/sys/poll.h'
p1939
sbsS's3eThread.h'
p1940
g237
(g1126
g239
Ntp1941
Rp1942
(dp1943
g1130
g1138
sg1131
g1154
sg267
S'd:/marmalade/6.1/s3e/h/s3eThread.h'
p1944
sbsS'ucontext.h'
p1945
g237
(g1126
g239
Ntp1946
Rp1947
(dp1948
g1130
g1138
sg1131
g1160
sg267
S'd:/marmalade/6.1/s3e/h/std/ucontext.h'
p1949
sbsS'time.h'
p1950
g237
(g1126
g239
Ntp1951
Rp1952
(dp1953
g1130
g1138
sg1131
g1160
sg267
S'd:/marmalade/6.1/s3e/h/std/time.h'
p1954
sbsVjchuff.h
p1955
g237
(g1126
g239
Ntp1956
Rp1957
(dp1958
g1130
g775
sg1131
g1212
sg267
g786
sbsS's3eSoundRecord.h'
p1959
g237
(g1126
g239
Ntp1960
Rp1961
(dp1962
g1130
g1138
sg1131
g1154
sg267
S'd:/marmalade/6.1/s3e/h/s3eSoundRecord.h'
p1963
sbsS'IwFibre.h'
p1964
g237
(g1126
g239
Ntp1965
Rp1966
(dp1967
g1130
g1013
sg1131
g1167
sg267
g1093
sbsS's3eVersion.h'
p1968
g237
(g1126
g239
Ntp1969
Rp1970
(dp1971
g1130
g1138
sg1131
g1154
sg267
S'd:/marmalade/6.1/s3e/h/s3eVersion.h'
p1972
sbsS'IwGxFontGlyph.h'
p1973
g237
(g1126
g239
Ntp1974
Rp1975
(dp1976
g1130
g845
sg1131
g1132
sg267
g859
sbsS's3eTypes.h'
p1977
g237
(g1126
g239
Ntp1978
Rp1979
(dp1980
g1130
g1138
sg1131
g1154
sg267
S'd:/marmalade/6.1/s3e/h/s3eTypes.h'
p1981
sbsS'signal_2.h'
p1982
g237
(g1126
g239
Ntp1983
Rp1984
(dp1985
g1130
g1138
sg1131
g1139
sg267
S'd:/marmalade/6.1/s3e/h/std/c++/signal.h'
p1986
sbsS'termios.h'
p1987
g237
(g1126
g239
Ntp1988
Rp1989
(dp1990
g1130
g1138
sg1131
g1160
sg267
S'd:/marmalade/6.1/s3e/h/std/termios.h'
p1991
sbsVjerror.h
p1992
g237
(g1126
g239
Ntp1993
Rp1994
(dp1995
g1130
g775
sg1131
g1212
sg267
g793
sbsS'cstdlib'
p1996
g237
(g1126
g239
Ntp1997
Rp1998
(dp1999
g1130
g1138
sg1131
g1139
sg267
S'd:/marmalade/6.1/s3e/h/std/c++/cstdlib'
p2000
sbsS's3eLocation.h'
p2001
g237
(g1126
g239
Ntp2002
Rp2003
(dp2004
g1130
g1138
sg1131
g1154
sg267
S'd:/marmalade/6.1/s3e/h/s3eLocation.h'
p2005
sbsS'IwMemBucketHelpers.h'
p2006
g237
(g1126
g239
Ntp2007
Rp2008
(dp2009
g1130
g1013
sg1131
g1167
sg267
g1074
sbsS's3eHash.h'
p2010
g237
(g1126
g239
Ntp2011
Rp2012
(dp2013
g1130
g1138
sg1131
g1154
sg267
S'd:/marmalade/6.1/s3e/h/s3eHash.h'
p2014
sbsS'IwGeomFMat.h'
p2015
g237
(g1126
g239
Ntp2016
Rp2017
(dp2018
g1130
g867
sg1131
g1148
sg267
g865
sbsS'type_traits.h'
p2019
g237
(g1126
g239
Ntp2020
Rp2021
(dp2022
g1130
g1138
sg1131
g1139
sg267
S'd:/marmalade/6.1/s3e/h/std/c++/type_traits.h'
p2023
sbsS'IwMenu.h'
p2024
g237
(g1126
g239
Ntp2025
Rp2026
(dp2027
g1130
g1013
sg1131
g1167
sg267
g1052
sbsS'IwResHandlerITX.h'
p2028
g237
(g1126
g239
Ntp2029
Rp2030
(dp2031
g1130
g935
sg1131
g1376
sg267
g940
sbsS'IwArray.h'
p2032
g237
(g1126
g239
Ntp2033
Rp2034
(dp2035
g1130
g1013
sg1131
g1167
sg267
g1040
sbsS'IwUTF8.h'
p2036
g237
(g1126
g239
Ntp2037
Rp2038
(dp2039
g1130
g1013
sg1131
g1167
sg267
g1080
sbsS'math_rvct.h'
p2040
g237
(g1126
g239
Ntp2041
Rp2042
(dp2043
g1130
g1138
sg1131
g1160
sg267
S'd:/marmalade/6.1/s3e/h/std/math_rvct.h'
p2044
sbsS'IwUtil.h'
p2045
g237
(g1126
g239
Ntp2046
Rp2047
(dp2048
g1130
g1013
sg1131
g1167
sg267
g1046
sbsS'IwGeomVec3.h'
p2049
g237
(g1126
g239
Ntp2050
Rp2051
(dp2052
g1130
g867
sg1131
g1148
sg267
g891
sbsS'wctype.h'
p2053
g237
(g1126
g239
Ntp2054
Rp2055
(dp2056
g1130
g1138
sg1131
g1160
sg267
S'd:/marmalade/6.1/s3e/h/std/wctype.h'
p2057
sbsS'cstddef'
p2058
g237
(g1126
g239
Ntp2059
Rp2060
(dp2061
g1130
g1138
sg1131
g1139
sg267
S'd:/marmalade/6.1/s3e/h/std/c++/cstddef'
p2062
sbsS'assert.h'
p2063
g237
(g1126
g239
Ntp2064
Rp2065
(dp2066
g1130
g1138
sg1131
g1160
sg267
S'd:/marmalade/6.1/s3e/h/std/assert.h'
p2067
sbsS'mman.h'
p2068
g237
(g1126
g239
Ntp2069
Rp2070
(dp2071
g1130
g1138
sg1131
g1270
sg267
S'd:/marmalade/6.1/s3e/h/std/sys/mman.h'
p2072
sbsS'IwRandom.h'
p2073
g237
(g1126
g239
Ntp2074
Rp2075
(dp2076
g1130
g1013
sg1131
g1167
sg267
g1103
sbsS'libgen.h'
p2077
g237
(g1126
g239
Ntp2078
Rp2079
(dp2080
g1130
g1138
sg1131
g1160
sg267
S'd:/marmalade/6.1/s3e/h/std/libgen.h'
p2081
sbsS'utsname.h'
p2082
g237
(g1126
g239
Ntp2083
Rp2084
(dp2085
g1130
g1138
sg1131
g1270
sg267
S'd:/marmalade/6.1/s3e/h/std/sys/utsname.h'
p2086
sbsS'wait.h'
p2087
g237
(g1126
g239
Ntp2088
Rp2089
(dp2090
g1130
g1138
sg1131
g1270
sg267
S'd:/marmalade/6.1/s3e/h/std/sys/wait.h'
p2091
sbsS'param.h'
p2092
g237
(g1126
g239
Ntp2093
Rp2094
(dp2095
g1130
g1138
sg1131
g1270
sg267
S'd:/marmalade/6.1/s3e/h/std/sys/param.h'
p2096
sbsS'IwDivide.h'
p2097
g237
(g1126
g239
Ntp2098
Rp2099
(dp2100
g1130
g1013
sg1131
g1167
sg267
g1099
sbsS'IwResManager.h'
p2101
g237
(g1126
g239
Ntp2102
Rp2103
(dp2104
g1130
g935
sg1131
g1376
sg267
g936
sbsS'ostream'
p2105
g237
(g1126
g239
Ntp2106
Rp2107
(dp2108
g1130
g1138
sg1131
g1139
sg267
S'd:/marmalade/6.1/s3e/h/std/c++/ostream'
p2109
sbsS'cwctype'
p2110
g237
(g1126
g239
Ntp2111
Rp2112
(dp2113
g1130
g1138
sg1131
g1139
sg267
S'd:/marmalade/6.1/s3e/h/std/c++/cwctype'
p2114
sbsS'set'
p2115
g237
(g1126
g239
Ntp2116
Rp2117
(dp2118
g1130
g1138
sg1131
g1139
sg267
S'd:/marmalade/6.1/s3e/h/std/c++/set'
p2119
sbsS'IwGeomSQuat.h'
p2120
g237
(g1126
g239
Ntp2121
Rp2122
(dp2123
g1130
g867
sg1131
g1148
sg267
g883
sbsS'locale'
p2124
g237
(g1126
g239
Ntp2125
Rp2126
(dp2127
g1130
g1138
sg1131
g1139
sg267
S'd:/marmalade/6.1/s3e/h/std/c++/locale'
p2128
sbsS'cstdio'
p2129
g237
(g1126
g239
Ntp2130
Rp2131
(dp2132
g1130
g1138
sg1131
g1139
sg267
S'd:/marmalade/6.1/s3e/h/std/c++/cstdio'
p2133
sbsVcdjpeg.h
p2134
g237
(g1126
g239
Ntp2135
Rp2136
(dp2137
g1130
g775
sg1131
g1212
sg267
g791
sbsS'IwList.h'
p2138
g237
(g1126
g239
Ntp2139
Rp2140
(dp2141
g1130
g1013
sg1131
g1167
sg267
g1084
sbsS'inttypes.h'
p2142
g237
(g1126
g239
Ntp2143
Rp2144
(dp2145
g1130
g1138
sg1131
g1160
sg267
S'd:/marmalade/6.1/s3e/h/std/inttypes.h'
p2146
sbsS'dirent.h'
p2147
g237
(g1126
g239
Ntp2148
Rp2149
(dp2150
g1130
g1138
sg1131
g1160
sg267
S'd:/marmalade/6.1/s3e/h/std/dirent.h'
p2151
sbsS'IwFColour.h'
p2152
g237
(g1126
g239
Ntp2153
Rp2154
(dp2155
g1130
g959
sg1131
g1256
sg267
g989
sbsVtransupp.h
p2156
g237
(g1126
g239
Ntp2157
Rp2158
(dp2159
g1130
g775
sg1131
g1212
sg267
g780
sbsS'IwMath.h'
p2160
g237
(g1126
g239
Ntp2161
Rp2162
(dp2163
g1130
g1013
sg1131
g1167
sg267
g1014
sbsS'IwGeomQuat.h'
p2164
g237
(g1126
g239
Ntp2165
Rp2166
(dp2167
g1130
g867
sg1131
g1148
sg267
g893
sbsS'glplatform.h'
p2168
g237
(g1126
g239
Ntp2169
Rp2170
(dp2171
g1130
g1138
sg1131
g1658
sg267
S'd:/marmalade/6.1/s3e/h/GLES/glplatform.h'
p2172
sbsS'bitset'
p2173
g237
(g1126
g239
Ntp2174
Rp2175
(dp2176
g1130
g1138
sg1131
g1139
sg267
S'd:/marmalade/6.1/s3e/h/std/c++/bitset'
p2177
sbsS'alloca.h'
p2178
g237
(g1126
g239
Ntp2179
Rp2180
(dp2181
g1130
g1138
sg1131
g1160
sg267
S'd:/marmalade/6.1/s3e/h/std/alloca.h'
p2182
sbsS'IwResHandler.h'
p2183
g237
(g1126
g239
Ntp2184
Rp2185
(dp2186
g1130
g935
sg1131
g1376
sg267
g953
sbsS'IwResHandlerMTL.h'
p2187
g237
(g1126
g239
Ntp2188
Rp2189
(dp2190
g1130
g959
sg1131
g1256
sg267
g1007
sbsS'IwRuntime.h'
p2191
g237
(g1126
g239
Ntp2192
Rp2193
(dp2194
g1130
g1013
sg1131
g1167
sg267
g1022
sbsS'limits'
p2195
g237
(g1126
g239
Ntp2196
Rp2197
(dp2198
g1130
g1138
sg1131
g1139
sg267
S'd:/marmalade/6.1/s3e/h/std/c++/limits'
p2199
sbsS'IwGeomBBox.h'
p2200
g237
(g1126
g239
Ntp2201
Rp2202
(dp2203
g1130
g867
sg1131
g1148
sg267
g913
sbsS's3eContacts.h'
p2204
g237
(g1126
g239
Ntp2205
Rp2206
(dp2207
g1130
g1138
sg1131
g1154
sg267
S'd:/marmalade/6.1/s3e/h/s3eContacts.h'
p2208
sbsS's3eLicense.h'
p2209
g237
(g1126
g239
Ntp2210
Rp2211
(dp2212
g1130
g1138
sg1131
g1154
sg267
S'd:/marmalade/6.1/s3e/h/s3eLicense.h'
p2213
sbsS'iwgx.config.txt'
p2214
g237
(g1126
g239
Ntp2215
Rp2216
(dp2217
g1130
g959
sg1131
g1256
sg267
g978
sbsS'IwTextParser.h'
p2218
g237
(g1126
g239
Ntp2219
Rp2220
(dp2221
g1130
g1013
sg1131
g1167
sg267
g1076
sbsS's3eTimer.h'
p2222
g237
(g1126
g239
Ntp2223
Rp2224
(dp2225
g1130
g1138
sg1131
g1154
sg267
S'd:/marmalade/6.1/s3e/h/s3eTimer.h'
p2226
sbsS'IwGeomVec.h'
p2227
g237
(g1126
g239
Ntp2228
Rp2229
(dp2230
g1130
g867
sg1131
g1148
sg267
g929
sbsS'IwSerialise.h'
p2231
g237
(g1126
g239
Ntp2232
Rp2233
(dp2234
g1130
g1013
sg1131
g1167
sg267
g1038
sbsS'cstdarg'
p2235
g237
(g1126
g239
Ntp2236
Rp2237
(dp2238
g1130
g1138
sg1131
g1139
sg267
S'd:/marmalade/6.1/s3e/h/std/c++/cstdarg'
p2239
sbsS'gl2ext.h'
p2240
g237
(g1126
g239
Ntp2241
Rp2242
(dp2243
g1130
g1138
sg1131
g1368
sg267
S'd:/marmalade/6.1/s3e/h/GLES2/gl2ext.h'
p2244
sbsS'IwChar.h'
p2245
g237
(g1126
g239
Ntp2246
Rp2247
(dp2248
g1130
g1013
sg1131
g1167
sg267
g1024
sbsS's3eSound.h'
p2249
g237
(g1126
g239
Ntp2250
Rp2251
(dp2252
g1130
g1138
sg1131
g1154
sg267
S'd:/marmalade/6.1/s3e/h/s3eSound.h'
p2253
sbsS'IwOptimiseThumb.h'
p2254
g237
(g1126
g239
Ntp2255
Rp2256
(dp2257
g1130
g1013
sg1131
g1167
sg267
g1097
sbsS'exception.h'
p2258
g237
(g1126
g239
Ntp2259
Rp2260
(dp2261
g1130
g1138
sg1131
g1139
sg267
S'd:/marmalade/6.1/s3e/h/std/c++/exception.h'
p2262
sbsS'iwgeom.config.txt'
p2263
g237
(g1126
g239
Ntp2264
Rp2265
(dp2266
g1130
g867
sg1131
g1148
sg267
g921
sbsS'iwgx.mkf'
p2267
g237
(g1126
g239
Ntp2268
Rp2269
(dp2270
g1130
g988
sg1131
g1256
sg267
g986
sbsS'gl.h'
p2271
g237
(g1126
g239
Ntp2272
Rp2273
(dp2274
g1130
g1138
sg1131
g1658
sg267
S'd:/marmalade/6.1/s3e/h/GLES/gl.h'
p2275
sbsVzlib.h
p2276
g237
(g1126
g239
Ntp2277
Rp2278
(dp2279
g1130
g1117
sg1131
g1615
sg267
g1118
sbsS'iwgl.mkf'
p2280
g237
(g1126
g239
Ntp2281
Rp2282
(dp2283
g1130
g821
sg1131
g1237
sg267
g819
sbsS'IwColour.h'
p2284
g237
(g1126
g239
Ntp2285
Rp2286
(dp2287
g1130
g959
sg1131
g1256
sg267
g972
sbsS's3eLibrary.h'
p2288
g237
(g1126
g239
Ntp2289
Rp2290
(dp2291
g1130
g1138
sg1131
g1339
sg267
S'd:/marmalade/6.1/s3e/h/ext/s3eLibrary.h'
p2292
sbsS'types.h'
p2293
g237
(g1126
g239
Ntp2294
Rp2295
(dp2296
g1130
g1138
sg1131
g1270
sg267
S'd:/marmalade/6.1/s3e/h/std/sys/types.h'
p2297
sbsS'ifaddrs.h'
p2298
g237
(g1126
g239
Ntp2299
Rp2300
(dp2301
g1130
g1138
sg1131
g1160
sg267
S'd:/marmalade/6.1/s3e/h/std/ifaddrs.h'
p2302
sbsS'strstream'
p2303
g237
(g1126
g239
Ntp2304
Rp2305
(dp2306
g1130
g1138
sg1131
g1139
sg267
S'd:/marmalade/6.1/s3e/h/std/c++/strstream'
p2307
sbsS'exception'
p2308
g237
(g1126
g239
Ntp2309
Rp2310
(dp2311
g1130
g1138
sg1131
g1139
sg267
S'd:/marmalade/6.1/s3e/h/std/c++/exception'
p2312
sbsS'rlocks.h'
p2313
g237
(g1126
g239
Ntp2314
Rp2315
(dp2316
g1130
g1138
sg1131
g1139
sg267
S'd:/marmalade/6.1/s3e/h/std/c++/rlocks.h'
p2317
sbsS'ioctl.h'
p2318
g237
(g1126
g239
Ntp2319
Rp2320
(dp2321
g1130
g1138
sg1131
g1270
sg267
S'd:/marmalade/6.1/s3e/h/std/sys/ioctl.h'
p2322
sbsS'rope'
p2323
g237
(g1126
g239
Ntp2324
Rp2325
(dp2326
g1130
g1138
sg1131
g1139
sg267
S'd:/marmalade/6.1/s3e/h/std/c++/rope'
p2327
sbsVjinclude.h
p2328
g237
(g1126
g239
Ntp2329
Rp2330
(dp2331
g1130
g775
sg1131
g1212
sg267
g784
sbsS'IwEvent.h'
p2332
g237
(g1126
g239
Ntp2333
Rp2334
(dp2335
g1130
g1013
sg1131
g1167
sg267
g1020
sbsS'IwOptimiseSize.h'
p2336
g237
(g1126
g239
Ntp2337
Rp2338
(dp2339
g1130
g1013
sg1131
g1167
sg267
g1064
sbsS'iwgxfont_public.defines.txt'
p2340
g237
(g1126
g239
Ntp2341
Rp2342
(dp2343
g1130
g845
sg1131
g1132
sg267
g857
sbsS'iconv.h'
p2344
g237
(g1126
g239
Ntp2345
Rp2346
(dp2347
g1130
g1138
sg1131
g1160
sg267
S'd:/marmalade/6.1/s3e/h/std/iconv.h'
p2348
sbsS'sendfile.h'
p2349
g237
(g1126
g239
Ntp2350
Rp2351
(dp2352
g1130
g1138
sg1131
g1270
sg267
S'd:/marmalade/6.1/s3e/h/std/sys/sendfile.h'
p2353
sbsS'IwGeomSphere.h'
p2354
g237
(g1126
g239
Ntp2355
Rp2356
(dp2357
g1130
g867
sg1131
g1148
sg267
g925
sbsVtiniconv.mkf
p2358
g237
(g1126
g239
Ntp2359
Rp2360
(dp2361
g1130
g814
sg1131
g1562
sg267
g812
sbsVjdct.h
p2362
g237
(g1126
g239
Ntp2363
Rp2364
(dp2365
g1130
g775
sg1131
g1212
sg267
g776
sbsS'cwchar'
p2366
g237
(g1126
g239
Ntp2367
Rp2368
(dp2369
g1130
g1138
sg1131
g1139
sg267
S'd:/marmalade/6.1/s3e/h/std/c++/cwchar'
p2370
sbsS's3eConfig.h'
p2371
g237
(g1126
g239
Ntp2372
Rp2373
(dp2374
g1130
g1138
sg1131
g1154
sg267
S'd:/marmalade/6.1/s3e/h/s3eConfig.h'
p2375
sbsS'IwHashString.h'
p2376
g237
(g1126
g239
Ntp2377
Rp2378
(dp2379
g1130
g1013
sg1131
g1167
sg267
g1034
sbsS'stat.h'
p2380
g237
(g1126
g239
Ntp2381
Rp2382
(dp2383
g1130
g1138
sg1131
g1270
sg267
S'd:/marmalade/6.1/s3e/h/std/sys/stat.h'
p2384
sbsS'byteswap.h'
p2385
g237
(g1126
g239
Ntp2386
Rp2387
(dp2388
g1130
g1138
sg1131
g1160
sg267
S'd:/marmalade/6.1/s3e/h/std/byteswap.h'
p2389
sbsS'iwresmanager.mkf'
p2390
g237
(g1126
g239
Ntp2391
Rp2392
(dp2393
g1130
g948
sg1131
g1376
sg267
g946
sbsS'IwUtilInitTerm.h'
p2394
g237
(g1126
g239
Ntp2395
Rp2396
(dp2397
g1130
g1013
sg1131
g1167
sg267
g1018
sbsS'pthread_1.h'
p2398
g237
(g1126
g239
Ntp2399
Rp2400
(dp2401
g1130
g1138
sg1131
g1139
sg267
S'd:/marmalade/6.1/s3e/h/std/c++/pthread.h'
p2402
sbsS'IwMemBucket.h'
p2403
g237
(g1126
g239
Ntp2404
Rp2405
(dp2406
g1130
g1013
sg1131
g1167
sg267
g1091
sbsS'complex'
p2407
g237
(g1126
g239
Ntp2408
Rp2409
(dp2410
g1130
g1138
sg1131
g1139
sg267
S'd:/marmalade/6.1/s3e/h/std/c++/complex'
p2411
sbsS'game.cpp'
p2412
g237
(g1126
g239
Ntp2413
Rp2414
(dp2415
g1130
g756
sg1131
g1514
sg267
g754
sbsS's3e.icf'
p2416
g237
(g1126
g239
Ntp2417
Rp2418
(dp2419
g1130
g1138
sg1131
g1154
sg267
S'd:/marmalade/6.1/s3e/s3e.icf'
p2420
sbsS'IwVariableBitField.h'
p2421
g237
(g1126
g239
Ntp2422
Rp2423
(dp2424
g1130
g1013
sg1131
g1167
sg267
g1095
sbsS'sem.h'
p2425
g237
(g1126
g239
Ntp2426
Rp2427
(dp2428
g1130
g1138
sg1131
g1270
sg267
S'd:/marmalade/6.1/s3e/h/std/sys/sem.h'
p2429
sbsS'IwGxFontState.h'
p2430
g237
(g1126
g239
Ntp2431
Rp2432
(dp2433
g1130
g845
sg1131
g1132
sg267
g853
sbsS'stdio.h'
p2434
g237
(g1126
g239
Ntp2435
Rp2436
(dp2437
g1130
g1138
sg1131
g1160
sg267
S'd:/marmalade/6.1/s3e/h/std/stdio.h'
p2438
sbsVjmemsys.h
p2439
g237
(g1126
g239
Ntp2440
Rp2441
(dp2442
g1130
g775
sg1131
g1212
sg267
g803
sbsS'ios'
p2443
g237
(g1126
g239
Ntp2444
Rp2445
(dp2446
g1130
g1138
sg1131
g1139
sg267
S'd:/marmalade/6.1/s3e/h/std/c++/ios'
p2447
sbsS'stack'
p2448
g237
(g1126
g239
Ntp2449
Rp2450
(dp2451
g1130
g1138
sg1131
g1139
sg267
S'd:/marmalade/6.1/s3e/h/std/c++/stack'
p2452
sbsS'new.h'
p2453
g237
(g1126
g239
Ntp2454
Rp2455
(dp2456
g1130
g1138
sg1131
g1139
sg267
S'd:/marmalade/6.1/s3e/h/std/c++/new.h'
p2457
sbsS's3eEMail.h'
p2458
g237
(g1126
g239
Ntp2459
Rp2460
(dp2461
g1130
g1138
sg1131
g1339
sg267
S'd:/marmalade/6.1/s3e/h/ext/s3eEMail.h'
p2462
sbsS's3eVideo.h'
p2463
g237
(g1126
g239
Ntp2464
Rp2465
(dp2466
g1130
g1138
sg1131
g1154
sg267
S'd:/marmalade/6.1/s3e/h/s3eVideo.h'
p2467
sbsS'IwFile.h'
p2468
g237
(g1126
g239
Ntp2469
Rp2470
(dp2471
g1130
g1013
sg1131
g1167
sg267
g1050
sbsS'pwd.h'
p2472
g237
(g1126
g239
Ntp2473
Rp2474
(dp2475
g1130
g1138
sg1131
g1160
sg267
S'd:/marmalade/6.1/s3e/h/std/pwd.h'
p2476
sbsS'IwClip.h'
p2477
g237
(g1126
g239
Ntp2478
Rp2479
(dp2480
g1130
g959
sg1131
g1256
sg267
g991
sbsS'iwresmanager.config.txt'
p2481
g237
(g1126
g239
Ntp2482
Rp2483
(dp2484
g1130
g935
sg1131
g1376
sg267
g944
sbsS'IwGxShaderTechnique.h'
p2485
g237
(g1126
g239
Ntp2486
Rp2487
(dp2488
g1130
g959
sg1131
g1256
sg267
g976
sbsS'IwCore.h'
p2489
g237
(g1126
g239
Ntp2490
Rp2491
(dp2492
g1130
g1013
sg1131
g1167
sg267
g1078
sbsS'cfloat'
p2493
g237
(g1126
g239
Ntp2494
Rp2495
(dp2496
g1130
g1138
sg1131
g1139
sg267
S'd:/marmalade/6.1/s3e/h/std/c++/cfloat'
p2497
sbsS'IwGeomMat2D.h'
p2498
g237
(g1126
g239
Ntp2499
Rp2500
(dp2501
g1130
g867
sg1131
g1148
sg267
g903
sbsS'IwAllocator.h'
p2502
g237
(g1126
g239
Ntp2503
Rp2504
(dp2505
g1130
g1013
sg1131
g1167
sg267
g1011
sbsS'IwPath.h'
p2506
g237
(g1126
g239
Ntp2507
Rp2508
(dp2509
g1130
g1013
sg1131
g1167
sg267
g1060
sbsS'iwgxfont.mkf'
p2510
g237
(g1126
g239
Ntp2511
Rp2512
(dp2513
g1130
g850
sg1131
g1132
sg267
g848
sbsS'IwTexture.h'
p2514
g237
(g1126
g239
Ntp2515
Rp2516
(dp2517
g1130
g959
sg1131
g1256
sg267
g993
sbsS's3eAccelerometer.h'
p2518
g237
(g1126
g239
Ntp2519
Rp2520
(dp2521
g1130
g1138
sg1131
g1154
sg267
S'd:/marmalade/6.1/s3e/h/s3eAccelerometer.h'
p2522
sbsS'setjmp.h'
p2523
g237
(g1126
g239
Ntp2524
Rp2525
(dp2526
g1130
g1138
sg1131
g1160
sg267
S'd:/marmalade/6.1/s3e/h/std/setjmp.h'
p2527
sbsVpngconf.h
p2528
g237
(g1126
g239
Ntp2529
Rp2530
(dp2531
g1130
g765
sg1131
g1630
sg267
g766
sbsS'IwTextParseable.h'
p2532
g237
(g1126
g239
Ntp2533
Rp2534
(dp2535
g1130
g1013
sg1131
g1167
sg267
g1056
sbsS'istream.h'
p2536
g237
(g1126
g239
Ntp2537
Rp2538
(dp2539
g1130
g1138
sg1131
g1139
sg267
S'd:/marmalade/6.1/s3e/h/std/c++/istream.h'
p2540
sbsS'stdint.h'
p2541
g237
(g1126
g239
Ntp2542
Rp2543
(dp2544
g1130
g1138
sg1131
g1160
sg267
S'd:/marmalade/6.1/s3e/h/std/stdint.h'
p2545
sbsS'semaphore.h'
p2546
g237
(g1126
g239
Ntp2547
Rp2548
(dp2549
g1130
g1138
sg1131
g1160
sg267
S'd:/marmalade/6.1/s3e/h/std/semaphore.h'
p2550
sbsS'ctime'
p2551
g237
(g1126
g239
Ntp2552
Rp2553
(dp2554
g1130
g1138
sg1131
g1139
sg267
S'd:/marmalade/6.1/s3e/h/std/c++/ctime'
p2555
sbsS'sstream'
p2556
g237
(g1126
g239
Ntp2557
Rp2558
(dp2559
g1130
g1138
sg1131
g1139
sg267
S'd:/marmalade/6.1/s3e/h/std/c++/sstream'
p2560
sbsS'IwGeomFBBox.h'
p2561
g237
(g1126
g239
Ntp2562
Rp2563
(dp2564
g1130
g867
sg1131
g1148
sg267
g885
sbsS'IwDebugPrim.h'
p2565
g237
(g1126
g239
Ntp2566
Rp2567
(dp2568
g1130
g959
sg1131
g1256
sg267
g974
sbsS'IwGxFontContainer.h'
p2569
g237
(g1126
g239
Ntp2570
Rp2571
(dp2572
g1130
g845
sg1131
g1132
sg267
g855
sbsS'IwGeomSVec3.h'
p2573
g237
(g1126
g239
Ntp2574
Rp2575
(dp2576
g1130
g867
sg1131
g1148
sg267
g907
sbsS'cassert'
p2577
g237
(g1126
g239
Ntp2578
Rp2579
(dp2580
g1130
g1138
sg1131
g1139
sg267
S'd:/marmalade/6.1/s3e/h/std/c++/cassert'
p2581
sbsS'IwGeomFVec3.h'
p2582
g237
(g1126
g239
Ntp2583
Rp2584
(dp2585
g1130
g867
sg1131
g1148
sg267
g917
sbsS'streambuf'
p2586
g237
(g1126
g239
Ntp2587
Rp2588
(dp2589
g1130
g1138
sg1131
g1139
sg267
S'd:/marmalade/6.1/s3e/h/std/c++/streambuf'
p2590
sbsS's3eMetrics.h'
p2591
g237
(g1126
g239
Ntp2592
Rp2593
(dp2594
g1130
g1138
sg1131
g1339
sg267
S'd:/marmalade/6.1/s3e/h/ext/s3eMetrics.h'
p2595
sbsS'IwGxFont.h'
p2596
g237
(g1126
g239
Ntp2597
Rp2598
(dp2599
g1130
g845
sg1131
g1132
sg267
g846
sbsS's3eSecureStorage.h'
p2600
g237
(g1126
g239
Ntp2601
Rp2602
(dp2603
g1130
g1138
sg1131
g1154
sg267
S'd:/marmalade/6.1/s3e/h/s3eSecureStorage.h'
p2604
sbsS'string.h'
p2605
g237
(g1126
g239
Ntp2606
Rp2607
(dp2608
g1130
g1138
sg1131
g1160
sg267
S'd:/marmalade/6.1/s3e/h/std/string.h'
p2609
sbsS'IwResource.h'
p2610
g237
(g1126
g239
Ntp2611
Rp2612
(dp2613
g1130
g1013
sg1131
g1167
sg267
g1089
sbsVlibjpeg.mkf
p2614
g237
(g1126
g239
Ntp2615
Rp2616
(dp2617
g1130
g790
sg1131
g1212
sg267
g788
sbsS'IwGxDebug.h'
p2618
g237
(g1126
g239
Ntp2619
Rp2620
(dp2621
g1130
g959
sg1131
g1256
sg267
g995
sbsS'pthread_types.h'
p2622
g237
(g1126
g239
Ntp2623
Rp2624
(dp2625
g1130
g1138
sg1131
g1160
sg267
S'd:/marmalade/6.1/s3e/h/std/pthread_types.h'
p2626
sbsS'iomanip.h'
p2627
g237
(g1126
g239
Ntp2628
Rp2629
(dp2630
g1130
g1138
sg1131
g1139
sg267
S'd:/marmalade/6.1/s3e/h/std/c++/iomanip.h'
p2631
sbsS'IwKeymap.h'
p2632
g237
(g1126
g239
Ntp2633
Rp2634
(dp2635
g1130
g1013
sg1131
g1167
sg267
g1068
sbsS'IwDebug.h'
p2636
g237
(g1126
g239
Ntp2637
Rp2638
(dp2639
g1130
g1013
sg1131
g1167
sg267
g1107
sbsS's3eIOSBackgroundAudio.h'
p2640
g237
(g1126
g239
Ntp2641
Rp2642
(dp2643
g1130
g1138
sg1131
g1339
sg267
S'd:/marmalade/6.1/s3e/h/ext/s3eIOSBackgroundAudio.h'
p2644
sbsS'IwGeomMenu.h'
p2645
g237
(g1126
g239
Ntp2646
Rp2647
(dp2648
g1130
g867
sg1131
g1148
sg267
g927
sbsS'IwDivTable.h'
p2649
g237
(g1126
g239
Ntp2650
Rp2651
(dp2652
g1130
g1013
sg1131
g1167
sg267
g1054
sbsS'ctype.h'
p2653
g237
(g1126
g239
Ntp2654
Rp2655
(dp2656
g1130
g1138
sg1131
g1160
sg267
S'd:/marmalade/6.1/s3e/h/std/ctype.h'
p2657
sbsS'IwGeomMat.h'
p2658
g237
(g1126
g239
Ntp2659
Rp2660
(dp2661
g1130
g867
sg1131
g1148
sg267
g889
sbsS'IwResGroup.h'
p2662
g237
(g1126
g239
Ntp2663
Rp2664
(dp2665
g1130
g935
sg1131
g1376
sg267
g951
sbsS'signal_1.h'
p2666
g237
(g1126
g239
Ntp2667
Rp2668
(dp2669
g1130
g1138
sg1131
g1270
sg267
S'd:/marmalade/6.1/s3e/h/std/sys/signal.h'
p2670
sbsS'functional'
p2671
g237
(g1126
g239
Ntp2672
Rp2673
(dp2674
g1130
g1138
sg1131
g1139
sg267
S'd:/marmalade/6.1/s3e/h/std/c++/functional'
p2675
sbsS'shm.h'
p2676
g237
(g1126
g239
Ntp2677
Rp2678
(dp2679
g1130
g1138
sg1131
g1270
sg267
S'd:/marmalade/6.1/s3e/h/std/sys/shm.h'
p2680
sbsVjpegint.h
p2681
g237
(g1126
g239
Ntp2682
Rp2683
(dp2684
g1130
g775
sg1131
g1212
sg267
g773
sbsS'prctl.h'
p2685
g237
(g1126
g239
Ntp2686
Rp2687
(dp2688
g1130
g1138
sg1131
g1270
sg267
S'd:/marmalade/6.1/s3e/h/std/sys/prctl.h'
p2689
sbsS'un.h'
p2690
g237
(g1126
g239
Ntp2691
Rp2692
(dp2693
g1130
g1138
sg1131
g1270
sg267
S'd:/marmalade/6.1/s3e/h/std/sys/un.h'
p2694
sbsS'utility'
p2695
g237
(g1126
g239
Ntp2696
Rp2697
(dp2698
g1130
g1138
sg1131
g1139
sg267
S'd:/marmalade/6.1/s3e/h/std/c++/utility'
p2699
sbsS'IwGeomLegacy.h'
p2700
g237
(g1126
g239
Ntp2701
Rp2702
(dp2703
g1130
g867
sg1131
g1148
sg267
g881
sbsS'IwTPage.h'
p2704
g237
(g1126
g239
Ntp2705
Rp2706
(dp2707
g1130
g959
sg1131
g1256
sg267
g962
sbsS'IwResSerialise.h'
p2708
g237
(g1126
g239
Ntp2709
Rp2710
(dp2711
g1130
g935
sg1131
g1376
sg267
g949
sbsS's3eCrypto.h'
p2712
g237
(g1126
g239
Ntp2713
Rp2714
(dp2715
g1130
g1138
sg1131
g1154
sg267
S'd:/marmalade/6.1/s3e/h/s3eCrypto.h'
p2716
sbsS's3eKeyboard.h'
p2717
g237
(g1126
g239
Ntp2718
Rp2719
(dp2720
g1130
g1138
sg1131
g1154
sg267
S'd:/marmalade/6.1/s3e/h/s3eKeyboard.h'
p2721
sbsS'fcntl.h'
p2722
g237
(g1126
g239
Ntp2723
Rp2724
(dp2725
g1130
g1138
sg1131
g1160
sg267
S'd:/marmalade/6.1/s3e/h/std/fcntl.h'
p2726
sbsS'memory.h'
p2727
g237
(g1126
g239
Ntp2728
Rp2729
(dp2730
g1130
g1138
sg1131
g1160
sg267
S'd:/marmalade/6.1/s3e/h/std/memory.h'
p2731
sbsS'pthread.h'
p2732
g237
(g1126
g239
Ntp2733
Rp2734
(dp2735
g1130
g1138
sg1131
g1160
sg267
S'd:/marmalade/6.1/s3e/h/std/pthread.h'
p2736
sbsS'IwGeomIntersect.h'
p2737
g237
(g1126
g239
Ntp2738
Rp2739
(dp2740
g1130
g867
sg1131
g1148
sg267
g879
sbsS'algorithm'
p2741
g237
(g1126
g239
Ntp2742
Rp2743
(dp2744
g1130
g1138
sg1131
g1139
sg267
S'd:/marmalade/6.1/s3e/h/std/c++/algorithm'
p2745
sbsS'egl_1.h'
p2746
g237
(g1126
g239
Ntp2747
Rp2748
(dp2749
g1130
g1138
sg1131
g1658
sg267
S'd:/marmalade/6.1/s3e/h/GLES/egl.h'
p2750
sbsS'ostream.h'
p2751
g237
(g1126
g239
Ntp2752
Rp2753
(dp2754
g1130
g1138
sg1131
g1139
sg267
S'd:/marmalade/6.1/s3e/h/std/c++/ostream.h'
p2755
sbsS'stl_user_config.h'
p2756
g237
(g1126
g239
Ntp2757
Rp2758
(dp2759
g1130
g1138
sg1131
g1139
sg267
S'd:/marmalade/6.1/s3e/h/std/c++/stl_user_config.h'
p2760
sbsS'IwProfileMenu.h'
p2761
g237
(g1126
g239
Ntp2762
Rp2763
(dp2764
g1130
g1013
sg1131
g1167
sg267
g1028
sbsS'MarmaladeVersion.h'
p2765
g237
(g1126
g239
Ntp2766
Rp2767
(dp2768
g1130
g1138
sg1131
g1154
sg267
S'd:/marmalade/6.1/s3e/h/MarmaladeVersion.h'
p2769
sbsS'ios.h'
p2770
g237
(g1126
g239
Ntp2771
Rp2772
(dp2773
g1130
g1138
sg1131
g1139
sg267
S'd:/marmalade/6.1/s3e/h/std/c++/ios.h'
p2774
sbsS'IwImageHelper.h'
p2775
g237
(g1126
g239
Ntp2776
Rp2777
(dp2778
g1130
g1013
sg1131
g1167
sg267
g1105
sbsS'hash_set'
p2779
g237
(g1126
g239
Ntp2780
Rp2781
(dp2782
g1130
g1138
sg1131
g1139
sg267
S'd:/marmalade/6.1/s3e/h/std/c++/hash_set'
p2783
sbsS'IwGeomFQuat.h'
p2784
g237
(g1126
g239
Ntp2785
Rp2786
(dp2787
g1130
g867
sg1131
g1148
sg267
g909
sbsVjmorecfg.h
p2788
g237
(g1126
g239
Ntp2789
Rp2790
(dp2791
g1130
g775
sg1131
g1212
sg267
g797
sbsS'eglplatform.h'
p2792
g237
(g1126
g239
Ntp2793
Rp2794
(dp2795
g1130
g1138
sg1131
g1447
sg267
S'd:/marmalade/6.1/s3e/h/EGL/eglplatform.h'
p2796
sbsS'stdbool.h'
p2797
g237
(g1126
g239
Ntp2798
Rp2799
(dp2800
g1130
g1138
sg1131
g1160
sg267
S'd:/marmalade/6.1/s3e/h/std/stdbool.h'
p2801
sbsS'math_gcc.h'
p2802
g237
(g1126
g239
Ntp2803
Rp2804
(dp2805
g1130
g1138
sg1131
g1160
sg267
S'd:/marmalade/6.1/s3e/h/std/math_gcc.h'
p2806
sbsS's3eMemory.h'
p2807
g237
(g1126
g239
Ntp2808
Rp2809
(dp2810
g1130
g1138
sg1131
g1154
sg267
S'd:/marmalade/6.1/s3e/h/s3eMemory.h'
p2811
sbsS'strings.h'
p2812
g237
(g1126
g239
Ntp2813
Rp2814
(dp2815
g1130
g1138
sg1131
g1160
sg267
S'd:/marmalade/6.1/s3e/h/std/strings.h'
p2816
sbsS's3eFile.h'
p2817
g237
(g1126
g239
Ntp2818
Rp2819
(dp2820
g1130
g1138
sg1131
g1154
sg267
S'd:/marmalade/6.1/s3e/h/s3eFile.h'
p2821
sbsS'IwGxTypes.h'
p2822
g237
(g1126
g239
Ntp2823
Rp2824
(dp2825
g1130
g959
sg1131
g1256
sg267
g999
sbsS'cerrno'
p2826
g237
(g1126
g239
Ntp2827
Rp2828
(dp2829
g1130
g1138
sg1131
g1139
sg267
S'd:/marmalade/6.1/s3e/h/std/c++/cerrno'
p2830
sbsS'resource.h'
p2831
g237
(g1126
g239
Ntp2832
Rp2833
(dp2834
g1130
g1138
sg1131
g1270
sg267
S'd:/marmalade/6.1/s3e/h/std/sys/resource.h'
p2835
sbsS'clocale'
p2836
g237
(g1126
g239
Ntp2837
Rp2838
(dp2839
g1130
g1138
sg1131
g1139
sg267
S'd:/marmalade/6.1/s3e/h/std/c++/clocale'
p2840
sbsS'csetjmp'
p2841
g237
(g1126
g239
Ntp2842
Rp2843
(dp2844
g1130
g1138
sg1131
g1139
sg267
S'd:/marmalade/6.1/s3e/h/std/c++/csetjmp'
p2845
sbsS'netdb.h'
p2846
g237
(g1126
g239
Ntp2847
Rp2848
(dp2849
g1130
g1138
sg1131
g1160
sg267
S'd:/marmalade/6.1/s3e/h/std/netdb.h'
p2850
sbsS's3eAndroidJNI.h'
p2851
g237
(g1126
g239
Ntp2852
Rp2853
(dp2854
g1130
g1138
sg1131
g1339
sg267
S'd:/marmalade/6.1/s3e/h/ext/s3eAndroidJNI.h'
p2855
sbsS'stdexcept'
p2856
g237
(g1126
g239
Ntp2857
Rp2858
(dp2859
g1130
g1138
sg1131
g1139
sg267
S'd:/marmalade/6.1/s3e/h/std/c++/stdexcept'
p2860
sbsS'math.h'
p2861
g237
(g1126
g239
Ntp2862
Rp2863
(dp2864
g1130
g1138
sg1131
g1160
sg267
S'd:/marmalade/6.1/s3e/h/std/math.h'
p2865
sbsS'cmath'
p2866
g237
(g1126
g239
Ntp2867
Rp2868
(dp2869
g1130
g1138
sg1131
g1139
sg267
S'd:/marmalade/6.1/s3e/h/std/c++/cmath'
p2870
sbsS'uio.h'
p2871
g237
(g1126
g239
Ntp2872
Rp2873
(dp2874
g1130
g1138
sg1131
g1270
sg267
S'd:/marmalade/6.1/s3e/h/std/sys/uio.h'
p2875
sbsS'IwUncopyable.h'
p2876
g237
(g1126
g239
Ntp2877
Rp2878
(dp2879
g1130
g1013
sg1131
g1167
sg267
g1066
sbssS'tests'
p2880
(lp2881
sS'project_name'
p2882
g245
sS'root_file'
p2883
g104
sS'current_root'
p2884
S'c:/Users/dreambit/Documents/memorygame'
p2885
sS'dependencies'
p2886
(lp2887
sS'include_paths'
p2888
(lp2889
S'c:/Users/dreambit/Documents/memorygame/h'
p2890
aVc:/users/dreambit/appdata/roaming/marmalade/packages/6.1.1/libjpeg_6b/h
p2891
aVc:/users/dreambit/appdata/roaming/marmalade/packages/6.1.1/zlib_1.2.4/h
p2892
aVc:/users/dreambit/appdata/roaming/marmalade/packages/6.1.1/libpng_1.2.34/h
p2893
aS'd:/marmalade/6.1/modules/iwutil/h'
p2894
aS'd:/marmalade/6.1/modules/iwgeom/h'
p2895
aS'd:/marmalade/6.1/modules/iwresmanager/h'
p2896
aS'd:/marmalade/6.1/modules/iwgl/h'
p2897
aS'd:/marmalade/6.1/modules/iwgx/h'
p2898
aVc:/users/dreambit/appdata/roaming/marmalade/packages/6.1.1/tiniconv_1.0.1/h
p2899
aS'd:/marmalade/6.1/modules/iwgxfont/h'
p2900
aS'd:/marmalade/6.1/modules/iw2d/h'
p2901
aS'd:/marmalade/6.1/s3e/h'
p2902
aS'd:/marmalade/6.1/s3e/h/ext'
p2903
aS'd:/marmalade/6.1/s3e/h/std'
p2904
aS'd:/marmalade/6.1/s3e/h/std/c++'
p2905
aS'd:/marmalade/6.1/s3e/h/ext_legacy'
p2906
aS'd:/marmalade/6.1/s3e/h/legacy'
p2907
asS'weak_frameworks'
p2908
(lp2909
sS'extprojects'
p2910
(dp2911
sg481
(dp2912
g475
(lp2913
(g64
S'.'
p2914
I0
tp2915
assS'macro_types'
p2916
(dp2917
g426
I1
sg427
I0
sg428
I0
sg429
I0
sg430
I0
sg431
I0
sg432
I0
sg434
I0
sg435
I0
sg436
I0
sg437
I0
sg439
I0
sg441
I0
sg442
I0
sg443
I0
sg444
I0
sg445
I1
sg446
I0
sg447
I0
sg448
I0
sg449
I01
sg450
I1
sg451
I0
sg452
I0
sg453
I0
ssS'commands'
p2918
(lp2919
sg483
(g745
S'VC10'
p2920
S'X86ARM'
p2921
tp2922
sS'build_libs'
p2923
(dp2924
sS'frameworks'
p2925
(lp2926
sS'environ'
p2927
(dp2928
sS'target_name_debug'
p2929
g245
sS'builders'
p2930
(dp2931
S'.S'
p2932
(dp2933
S'rvct'
p2934
(lp2935
S'.obj'
p2936
aS'echo ARM Assembling(RVCT) ${SOURCE}...'
p2937
aS'd:/marmalade/6.1/s3e\\rvct\\bin\\armasm -o ${TARGET} ${SOURCE}'
p2938
asg346
(lp2939
g2936
aS'echo ARM Assembling(GCC) ${SOURCE}...'
p2940
aS'd:/marmalade/6.1/s3e\\gcc\\bin\\arm-none-eabi-gcc -c -o ${TARGET} ${SOURCE}'
p2941
asS'ppu'
p2942
(lp2943
S'.a'
p2944
aS'echo PPU Assembling(SNC) ${SOURCE}...'
p2945
aS'd:/marmalade/6.1/s3e\\rvct\\bin\\armasm -o ${TARGET} ${SOURCE}'
p2946
assS'.s'
p2947
g2933
sS'.vp'
p2948
(lp2949
NaS'"D:/Marmalade/6.1/s3e/python/python.exe" "d:/marmalade/6.1/modules/iwgx/tools/compile_shaders.py" ${SOURCE}'
p2950
assg485
g0
sbtp2951
.