((dp0
S'arm_dbg_args'
p1
S'-via:"c:\\Users\\dreambit\\Documents\\memorygame\\build_memorygame_vc10\\memorygame_vc10_arm_debug.via" -qemu'
p2
sS'game-icf'
p3
S''
p4
sS'dist'
p5
NsS'module_path_append'
p6
NsS'global_path'
p7
S'c:\\users\\dreambit\\documents'
p8
sS'system_path'
p9
S'd:\\marmalade\\6.1\\s3e\\makefile_builder'
p10
sS'use_prebuilt'
p11
NsS'arm_rel_rtsm_args'
p12
S'-via:"c:\\Users\\dreambit\\Documents\\memorygame\\build_memorygame_vc10\\memorygame_vc10_arm_release.via" -qemu'
p13
sS'amd64'
p14
NsS'debug'
p15
NsS'line-width'
p16
I80
sS'gcc_dbg_args'
p17
S'-via:"c:\\Users\\dreambit\\Documents\\memorygame\\build_memorygame_vc10\\memorygame_vc10_gcc_debug.via" -qemu'
p18
sS'x86_dbg_exe'
p19
S'd:/marmalade/6.1/s3e\\win32\\s3e_simulator_debug.exe'
p20
sS'disable-runtime-checks'
p21
NsS'no-make'
p22
NsS'optimise-size'
p23
NsS'output-name-debug'
p24
g4
sS'arm-fpu'
p25
g4
sS'psp'
p26
NsS'proj_name'
p27
S'memorygame_vc10'
p28
sS'rvct-version'
p29
S'none'
p30
sS'compiler'
p31
g4
sS'execute'
p32
NsS'compile-static'
p33
NsS'msvc-project'
p34
NsS'buildenv'
p35
g4
sS'release'
p36
NsS'module_path'
p37
NsS'use-release-std-libs'
p38
NsS'using_perforce'
p39
I00
sS'mips-s3e'
p40
NsS'shared-arm-lib'
p41
NsS'arm-cpu'
p42
g4
sS'compile-thumb'
p43
NsS'no-ide'
p44
NsS'msvc-version'
p45
S'6.0'
p46
sS'arm'
p47
NsS'builddir'
p48
g4
sS'compile-debug-as-release'
p49
I0
sS'brief'
p50
NsS'dll'
p51
NsS'version'
p52
NsS'ccache'
p53
I0
sS'offline'
p54
NsS'ios-version'
p55
g4
sS'jobs'
p56
I0
sS'linkflags'
p57
NsS'quick'
p58
NsS'gcc_rel_rtsm_args'
p59
S'-via:"c:\\Users\\dreambit\\Documents\\memorygame\\build_memorygame_vc10\\memorygame_vc10_gcc_release.via" -qemu'
p60
sS'done_defaults'
p61
I1
sS'path'
p62
NsS's3e-data-dir'
p63
S'c:/Users/dreambit/Documents/memorygame\\data'
p64
sS'enable-exceptions'
p65
NsS'osx-dll'
p66
NsS'extension'
p67
g4
sS'no-vc6'
p68
NsS'non-interactive'
p69
NsS'win32-console'
p70
NsS'nds'
p71
NsS'dist-format'
p72
g4
sS's3e-force-arch'
p73
NsS'dump_defines'
p74
NsS'verbose'
p75
I0
sS'psp-minis'
p76
NsS'gcc-version'
p77
g4
sS'x86_dbg_args'
p78
S'-via:"c:\\Users\\dreambit\\Documents\\memorygame\\build_memorygame_vc10\\memorygame_vc10_debug.via"'
p79
sS'arm-debugger'
p80
g4
sS'use_temp_extension'
p81
NsS'log'
p82
NsS'no-strip'
p83
NsS'rebuild'
p84
NsS'win32-simulator-dll'
p85
NsS'strict'
p86
NsS'mips_dbg_args'
p87
S'../../tools/DeployTool/DeployTool.exe --dir "c:\\Users\\dreambit\\Documents\\memorygame\\build_memorygame_vc10"'
p88
sS'enable-global-path'
p89
NsS'iphone'
p90
NsS'cflags'
p91
NsS'dist-dir'
p92
g4
sS'jflags'
p93
NsS'distcc'
p94
NsS'external-compiler'
p95
NsS'no-distcc'
p96
NsS'preinclude'
p97
NsS'using_sdk'
p98
I01
sS'nologo'
p99
NsS'warn-level'
p100
I2
sS'mips_dbg_exe'
p101
S'd:\\marmalade\\6.1\\s3e\\makefile_builder\\tool_launcher.exe'
p102
sS'mkb_in'
p103
S'c:/Users/dreambit/Documents/memorygame/memorygame.mkb'
p104
sS'arm_dbg_exe'
p105
S'd:/marmalade/6.1/s3e\\bin\\armdebug.exe'
p106
sS'list-targets'
p107
NsS'arm_rel_exe'
p108
g102
sS'arm_rel_args'
p109
g88
sS'makedeps'
p110
NsS'default-buildenv'
p111
S'VC10'
p112
sS'x86_rel_exe'
p113
g20
sS'preprocess-java'
p114
NsS'mips_rel_args'
p115
g88
sS'defines'
p116
NsS'lib'
p117
NsS'global_argv'
p118
(lp119
S'D:\\Marmalade\\6.1\\s3e\\makefile_builder\\mkb.py'
p120
aS'C:\\Users\\dreambit\\Documents\\memorygame\\memorygame.mkb'
p121
asS'make'
p122
NsS'optimise-speed'
p123
NsS'internal'
p124
NsS'enable-stdinc'
p125
NsS'deploy-only'
p126
NsS'x86'
p127
NsS'deploy'
p128
g4
sS'x86_run_exe'
p129
S'd:/marmalade/6.1/s3e\\win32\\s3e_console.exe'
p130
sS'x86_rel_args'
p131
S'-via:"c:\\Users\\dreambit\\Documents\\memorygame\\build_memorygame_vc10\\memorygame_vc10_release.via"'
p132
sS'gcc_rel_args'
p133
g88
sS'mips'
p134
NsS'incredibuild'
p135
NsS'strict-compile'
p136
NsS'use-auto-subdirs'
p137
NsS'mips_rel_exe'
p138
g102
sS'app-icf'
p139
g4
sS'deployargs'
p140
NsS'mkf_in'
p141
(lp142
S'd:\\marmalade\\6.1\\modules\\iw2d\\iw2d.mkf'
p143
aS'd:\\marmalade\\6.1\\modules\\iwgx\\iwgx.mkf'
p144
aS'd:\\marmalade\\6.1\\modules\\iwgeom\\iwgeom.mkf'
p145
aS'd:\\marmalade\\6.1\\modules\\iwutil\\iwutil.mkf'
p146
aVc:\u005cusers\u005cdreambit\u005cappdata\u005croaming\u005cmarmalade\u005cpackages\u005c6.1.1\u005clibjpeg_6b\u005clibjpeg.mkf
p147
aVc:\u005cusers\u005cdreambit\u005cappdata\u005croaming\u005cmarmalade\u005cpackages\u005c6.1.1\u005clibpng_1.2.34\u005clibpng.mkf
p148
aVc:\u005cusers\u005cdreambit\u005cappdata\u005croaming\u005cmarmalade\u005cpackages\u005c6.1.1\u005czlib_1.2.4\u005czlib.mkf
p149
aS'd:\\marmalade\\6.1\\modules\\iwresmanager\\iwresmanager.mkf'
p150
aS'd:\\marmalade\\6.1\\modules\\iwgl\\iwgl.mkf'
p151
aS'd:\\marmalade\\6.1\\modules\\iwgxfont\\iwgxfont.mkf'
p152
aVc:\u005cusers\u005cdreambit\u005cappdata\u005croaming\u005cmarmalade\u005cpackages\u005c6.1.1\u005ctiniconv_1.0.1\u005ctiniconv.mkf
p153
asS'strict-mkb'
p154
NsS'executeargs'
p155
NsS'clean'
p156
NsS'no-asm'
p157
NsS'output-name'
p158
g4
sS'no-modules'
p159
NsS'find_define'
p160
g4
s(dp161
S'd:\\marmalade\\6.1\\s3e\\makefile_builder\\plugins\\deploy.pyc'
p162
F1346980156.0
sS'd:\\marmalade\\6.1\\s3e\\makefile_builder\\templates\\xcode_pbxuser.py'
p163
F1346967582.0
sS'd:\\marmalade\\6.1\\s3e\\makefile_builder\\templates\\win32_vcproj.pyc'
p164
F1346980156.0
sS'd:\\marmalade\\6.1\\s3e\\makefile_builder\\templates\\qmake_user.py'
p165
F1346967582.0
sS'd:\\marmalade\\6.1\\s3e\\makefile_builder\\plugins\\s3e_xcode.pyc'
p166
F1351196774.1050699
sS'd:\\marmalade\\6.1\\s3e\\makefile_builder\\mkb_parser.pyc'
p167
F1346980156.0
sS'd:\\marmalade\\6.1\\s3e\\makefile_builder\\plugins\\s3e_web.pyc'
p168
F1346980156.0
sS'd:\\marmalade\\6.1\\s3e\\makefile_builder\\mkb_launcher.exe'
p169
F1346968658.0
sS'd:\\marmalade\\6.1\\s3e\\makefile_builder\\plugins\\SConsEmitter.pyc'
p170
F1346980156.0
sS'd:\\marmalade\\6.1\\s3e\\makefile_builder\\docs\\deprecated.options.txt'
p171
F1346967580.0
sS'd:\\marmalade\\6.1\\s3e\\makefile_builder\\templates\\win32_vcxproj_filters.pyc'
p172
F1346980158.0
sS'd:\\marmalade\\6.1\\s3e\\makefile_builder\\templates\\vc7_suo.pyc'
p173
F1346980156.0
sS'd:\\marmalade\\6.1\\s3e\\makefile_builder\\plugins\\S3EEmitter.pyc'
p174
F1346980156.0
sS'd:\\marmalade\\6.1\\s3e\\makefile_builder\\templates\\win32_sln.pyc'
p175
F1346980156.0
sS'd:\\marmalade\\6.1\\s3e\\makefile_builder\\mkb_globals.pyc'
p176
F1346980156.0
sS'd:\\marmalade\\6.1\\s3e\\makefile_builder\\templates\\linker_script'
p177
F1346967582.0
sS'd:\\marmalade\\6.1\\s3e\\makefile_builder\\templates\\vc10_user.pyc'
p178
F1346980158.0
sS'd:\\marmalade\\6.1\\s3e\\makefile_builder\\mkb_util.pyc'
p179
F1346980156.0
sS'd:\\marmalade\\6.1\\s3e\\makefile_builder\\tool_launcher.exe'
p180
F1346968662.0
sS'd:\\marmalade\\6.1\\s3e\\makefile_builder\\extensions'
p181
F1351196654.8682499
sS'd:\\marmalade\\6.1\\s3e\\makefile_builder\\extensions\\make_dist.py'
p182
F1346967580.0
sS'd:\\marmalade\\6.1\\s3e\\makefile_builder\\templates\\rvct_linker_script'
p183
F1346967582.0
sS'd:\\marmalade\\6.1\\s3e\\makefile_builder\\templates\\vc8_user.pyc'
p184
F1346980158.0
sS'd:\\marmalade\\6.1\\s3e\\makefile_builder\\plugins\\VisualStudioEmitter.pyc'
p185
F1346980156.0
sS'd:\\marmalade\\6.1\\s3e\\makefile_builder\\plugins\\xcode4_schememanagement.pyc'
p186
F1351196774.0660677
sS'd:\\marmalade\\6.1\\s3e\\makefile_builder\\templates\\xcode4_DeployTool.xcscheme'
p187
F1346967582.0
sS'd:\\marmalade\\6.1\\s3e\\makefile_builder\\plugins\\osx_scons.pyc'
p188
F1346980156.0
sS'd:\\marmalade\\6.1\\s3e\\makefile_builder\\docs\\options.txt'
p189
F1346967580.0
sS'd:\\marmalade\\6.1\\s3e\\makefile_builder\\templates\\win32_dsw.pyc'
p190
F1346980156.0
sS'd:\\marmalade\\6.1\\s3e\\makefile_builder\\docs\\parse_options.pyc'
p191
F1346980158.0
sS'd:\\marmalade\\6.1\\s3e\\makefile_builder\\templates\\template.opt'
p192
F1346967582.0
sS'd:\\marmalade\\6.1\\s3e\\makefile_builder\\docs'
p193
F1351196655.1092639
sS'd:\\marmalade\\6.1\\s3e\\makefile_builder\\plugins\\xcode4_schememanagement.py'
p194
F1346967582.0
sS'd:\\marmalade\\6.1\\s3e\\makefile_builder\\templates'
p195
F1351196654.835248
sS'd:\\marmalade\\6.1\\s3e\\makefile_builder\\plugins\\s3e_vc6.pyc'
p196
F1346980156.0
sS'd:\\marmalade\\6.1\\s3e\\makefile_builder\\docs\\mkb.defines.txt'
p197
F1346967580.0
sS'd:\\marmalade\\6.1\\s3e\\makefile_builder\\templates\\scons.pyc'
p198
F1346980156.0
sS'd:\\marmalade\\6.1\\s3e\\makefile_builder\\templates\\xcode.py'
p199
F1346967582.0
sS'd:\\marmalade\\6.1\\s3e\\makefile_builder\\plugins\\Emitter.pyc'
p200
F1346980156.0
sS'd:\\marmalade\\6.1\\s3e\\makefile_builder\\plugins\\s3e_qmake.pyc'
p201
F1351196774.0900691
sS'd:\\marmalade\\6.1\\s3e\\makefile_builder\\plugins'
p202
F1351196774.1050699
sS'd:\\marmalade\\6.1\\s3e\\makefile_builder\\plugins\\XcodeEmitter.pyc'
p203
F1351196774.0640676
sS'd:\\marmalade\\6.1\\s3e\\makefile_builder\\plugins\\linux_scons.pyc'
p204
F1346980156.0
sS'd:\\marmalade\\6.1\\s3e\\makefile_builder\\plugins\\win32_vc6.pyc'
p205
F1346980156.0
sS'd:\\marmalade\\6.1\\s3e\\makefile_builder\\plugins\\XcodeEmitter.py'
p206
F1346967582.0
sS'd:\\marmalade\\6.1\\s3e\\makefile_builder\\plugins\\s3e_scons.pyc'
p207
F1346980156.0
sS'd:\\marmalade\\6.1\\s3e\\makefile_builder\\templates\\MainWindow.xib'
p208
F1346967582.0
sS'd:\\marmalade\\6.1\\s3e\\makefile_builder\\templates\\Info.plist'
p209
F1346967582.0
sS'd:\\marmalade\\6.1\\s3e\\makefile_builder\\plugins\\s3e_make.pyc'
p210
F1346980156.0
sS'd:\\marmalade\\6.1\\s3e\\makefile_builder\\templates\\win32_dsp.pyc'
p211
F1346980156.0
sS'd:\\marmalade\\6.1\\s3e\\makefile_builder\\plugins\\vc6_utils.pyc'
p212
F1346980156.0
sS'd:\\marmalade\\6.1\\s3e\\makefile_builder\\templates\\make.py'
p213
F1346967582.0
sS'd:\\marmalade\\6.1\\s3e\\makefile_builder\\templates\\win32_vcxproj.pyc'
p214
F1346980158.0
sS'd:\\marmalade\\6.1\\s3e\\makefile_builder\\mkb_main.pyc'
p215
F1346980156.0
sS'd:\\marmalade\\6.1\\s3e\\makefile_builder\\templates\\vc6_opt.pyc'
p216
F1346980156.0
sS'd:\\marmalade\\6.1\\s3e\\makefile_builder\\plugins\\iphone.pyc'
p217
F1346980156.0
sS'd:\\marmalade\\6.1\\s3e\\makefile_builder\\templates\\qmake.py'
p218
F1346967582.0
sS'd:\\marmalade\\6.1\\s3e\\makefile_builder\\templates\\mips_linker_script'
p219
F1346967582.0
sS'd:\\marmalade\\6.1\\s3e\\makefile_builder\\mkb.py'
p220
F1346967580.0
sS'd:\\marmalade\\6.1\\s3e\\makefile_builder\\plugins\\s3e_qmake.py'
p221
F1346967582.0
sS'd:\\marmalade\\6.1\\s3e\\makefile_builder\\deployment.pyc'
p222
F1346980156.0
sS'd:\\marmalade\\6.1\\s3e\\makefile_builder\\templates\\template.suo'
p223
F1346967582.0
sS'd:\\marmalade\\6.1\\s3e\\makefile_builder\\templates\\gdb_start.txt'
p224
F1346967582.0
sS'd:\\marmalade\\6.1\\s3e\\makefile_builder\\docs\\deployment_options.txt'
p225
F1346967580.0
sS'd:\\marmalade\\6.1\\s3e\\makefile_builder\\plugins\\MakeEmitter.pyc'
p226
F1346980156.0
sS'd:\\marmalade\\6.1\\s3e\\makefile_builder\\plugins\\osx_xcode.pyc'
p227
F1346980156.0
sS'd:\\marmalade\\6.1\\s3e\\makefile_builder\\plugins\\null.pyc'
p228
F1346980156.0
sS'd:\\marmalade\\6.1\\s3e\\makefile_builder\\mkb_option.pyc'
p229
F1346980156.0
sS'd:\\marmalade\\6.1\\s3e\\makefile_builder\\docs\\deprecated.defines.txt'
p230
F1346967580.0
sS'd:\\marmalade\\6.1\\s3e\\makefile_builder\\plugins\\s3e_xcode.py'
p231
F1346967582.0
sS'd:\\marmalade\\6.1\\s3e\\makefile_builder\\plugins\\vc7_utils.pyc'
p232
F1346980156.0
sS'd:\\marmalade\\6.1\\s3e\\makefile_builder\\plugins\\java.pyc'
p233
F1346980156.0
sS'd:\\marmalade\\6.1\\s3e\\makefile_builder\\templates\\xcode4.xcscheme'
p234
F1346967582.0
sccopy_reg
_reconstructor
p235
(cmkb_main
MkbFile
p236
c__builtin__
object
p237
Ntp238
Rp239
(dp240
g5
(lp241
sS'target_name'
p242
S'memorygame'
p243
sS'current_file'
p244
g104
sS'package_path'
p245
(lp246
VC:\u005cUsers\u005cdreambit\u005cAppData\u005cRoaming\u005cMarmalade\u005cpackages\u005c6.1.1\u005clibjpeg_6b
p247
aVC:\u005cUsers\u005cdreambit\u005cAppData\u005cRoaming\u005cMarmalade\u005cpackages\u005c6.1.1\u005clibpng_1.2.34
p248
aVC:\u005cUsers\u005cdreambit\u005cAppData\u005cRoaming\u005cMarmalade\u005cpackages\u005c6.1.1\u005czlib_1.2.4
p249
aVC:\u005cUsers\u005cdreambit\u005cAppData\u005cRoaming\u005cMarmalade\u005cpackages\u005c6.1.1\u005ctiniconv_1.0.1
p250
asS'post_build'
p251
(lp252
(lp253
S'd:/marmalade/6.1/s3e/tools'
p254
aS'D:\\Marmalade\\6.1\\s3e\\python\\python.exe .\\process_map.py "$(TargetPath)"'
p255
aa(S'd:\\marmalade\\6.1\\s3e'
p256
S'"d:\\marmalade\\6.1\\s3e\\bin\\s3e_plink" -l "$(TargetPath)"'
p257
g127
tp258
asS'librarys'
p259
(lp260
g235
(cmkb_main
Library
p261
g237
Ntp262
Rp263
(dp264
S'name'
p265
S'vc6_compat.lib'
p266
sS'expand_name'
p267
I00
sS'include_spec_rvct_objs'
p268
(lp269
sS'include_all_objs'
p270
I00
sS'share_arm'
p271
I00
sS'arch'
p272
S'x86'
p273
sS'nodebug'
p274
I00
sg31
Nsbag235
(g261
g237
Ntp275
Rp276
(dp277
g265
S'jpeg'
p278
sg267
I01
sg268
(lp279
sg270
I00
sg271
Nsg272
Nsg274
I00
sg31
Nsbag235
(g261
g237
Ntp280
Rp281
(dp282
g265
S'z'
p283
sg267
I01
sg268
g279
sg270
I00
sg271
Nsg272
Nsg274
I00
sg31
Nsbag235
(g261
g237
Ntp284
Rp285
(dp286
g265
S'png'
p287
sg267
I01
sg268
g279
sg270
I00
sg271
Nsg272
Nsg274
I00
sg31
Nsbag235
(g261
g237
Ntp288
Rp289
(dp290
g265
S'iwutil'
p291
sg267
I01
sg268
g279
sg270
I00
sg271
I01
sg272
Nsg274
I00
sg31
Nsbag235
(g261
g237
Ntp292
Rp293
(dp294
g265
S'iwgeom'
p295
sg267
I01
sg268
g279
sg270
I00
sg271
I01
sg272
Nsg274
I00
sg31
Nsbag235
(g261
g237
Ntp296
Rp297
(dp298
g265
S'iwresmanager'
p299
sg267
I01
sg268
g279
sg270
I00
sg271
I01
sg272
Nsg274
I00
sg31
Nsbag235
(g261
g237
Ntp300
Rp301
(dp302
g265
S'ATI_Compress_MT_VC7.lib'
p303
sg267
I00
sg268
g279
sg270
I00
sg271
Nsg272
S'x86'
p304
sg274
I00
sg31
Nsbag235
(g261
g237
Ntp305
Rp306
(dp307
g265
S'iwgx'
p308
sg267
I01
sg268
g279
sg270
I00
sg271
I01
sg272
Nsg274
I00
sg31
Nsbag235
(g261
g237
Ntp309
Rp310
(dp311
g265
S'iwgl'
p312
sg267
I01
sg268
g279
sg270
I00
sg271
Nsg272
Nsg274
I00
sg31
Nsbag235
(g261
g237
Ntp313
Rp314
(dp315
g265
S'iwgxfont'
p316
sg267
I01
sg268
g279
sg270
I00
sg271
I01
sg272
Nsg274
I00
sg31
Nsbag235
(g261
g237
Ntp317
Rp318
(dp319
g265
S'tiniconv'
p320
sg267
I01
sg268
g279
sg270
I00
sg271
Nsg272
Nsg274
I00
sg31
Nsbag235
(g261
g237
Ntp321
Rp322
(dp323
g265
S'iw2d'
p324
sg267
I01
sg268
g279
sg270
I00
sg271
I01
sg272
Nsg274
I00
sg31
Nsbag235
(g261
g237
Ntp325
Rp326
(dp327
g265
S's3e_cpp'
p328
sg267
I01
sg268
g269
sg270
I00
sg271
I00
sg272
Nsg274
I00
sg31
Nsbag235
(g261
g237
Ntp329
Rp330
(dp331
g265
S's3e'
p332
sg267
I01
sg268
(lp333
S'iwcrt.o'
p334
asg270
I00
sg271
I00
sg272
Nsg274
I00
sg31
Nsbag235
(g261
g237
Ntp335
Rp336
(dp337
g265
S's3e_api'
p338
sg267
I01
sg268
g269
sg270
I00
sg271
I00
sg272
Nsg274
I1
sg31
Nsbag235
(g261
g237
Ntp339
Rp340
(dp341
g265
S's3e_api'
p342
sg267
I00
sg268
g269
sg270
I00
sg271
I00
sg272
S'arm'
p343
sg274
I00
sg31
S'gcc'
p344
sbag235
(g261
g237
Ntp345
Rp346
(dp347
g265
S'stdc++'
p348
sg267
I00
sg268
g269
sg270
I00
sg271
I00
sg272
S'mips'
p349
sg274
I00
sg31
Nsbag235
(g261
g237
Ntp350
Rp351
(dp352
g265
S'c'
p353
sg267
I00
sg268
g269
sg270
I00
sg271
I00
sg272
S'mips'
p354
sg274
I00
sg31
Nsbag235
(g261
g237
Ntp355
Rp356
(dp357
g265
S'm'
p358
sg267
I00
sg268
g269
sg270
I00
sg271
I00
sg272
S'mips'
p359
sg274
I00
sg31
Nsbag235
(g261
g237
Ntp360
Rp361
(dp362
g265
S'gcc'
p363
sg267
I00
sg268
g269
sg270
I00
sg271
I00
sg272
S'mips'
p364
sg274
I00
sg31
NsbasS'library_paths'
p365
(lp366
g235
(cmkb_main
LibraryPath
p367
g237
Ntp368
Rp369
(dp370
S'expand_path'
p371
I01
sS'add_cpu_variant'
p372
I00
sg265
Vc:/users/dreambit/appdata/roaming/marmalade/packages/6.1.1/libjpeg_6b
p373
sbag235
(g367
g237
Ntp374
Rp375
(dp376
g371
I01
sg372
I00
sg265
Vc:/users/dreambit/appdata/roaming/marmalade/packages/6.1.1/zlib_1.2.4
p377
sbag235
(g367
g237
Ntp378
Rp379
(dp380
g371
I01
sg372
I00
sg265
Vc:/users/dreambit/appdata/roaming/marmalade/packages/6.1.1/libpng_1.2.34
p381
sbag235
(g367
g237
Ntp382
Rp383
(dp384
g371
I01
sg372
I00
sg265
S'd:/marmalade/6.1/modules/iwutil'
p385
sbag235
(g367
g237
Ntp386
Rp387
(dp388
g371
I01
sg372
I00
sg265
S'd:/marmalade/6.1/modules/iwgeom'
p389
sbag235
(g367
g237
Ntp390
Rp391
(dp392
g371
I01
sg372
I00
sg265
S'd:/marmalade/6.1/modules/iwresmanager'
p393
sbag235
(g367
g237
Ntp394
Rp395
(dp396
g371
I00
sg372
I00
sg265
S'd:/marmalade/6.1/modules/iwgx/atitools'
p397
sbag235
(g367
g237
Ntp398
Rp399
(dp400
g371
I01
sg372
I00
sg265
S'd:/marmalade/6.1/modules/iwgx'
p401
sbag235
(g367
g237
Ntp402
Rp403
(dp404
g371
I01
sg372
I00
sg265
S'd:/marmalade/6.1/modules/iwgl'
p405
sbag235
(g367
g237
Ntp406
Rp407
(dp408
g371
I01
sg372
I00
sg265
S'd:/marmalade/6.1/modules/iwgxfont'
p409
sbag235
(g367
g237
Ntp410
Rp411
(dp412
g371
I01
sg372
I00
sg265
Vc:/users/dreambit/appdata/roaming/marmalade/packages/6.1.1/tiniconv_1.0.1
p413
sbag235
(g367
g237
Ntp414
Rp415
(dp416
g371
I01
sg372
I00
sg265
S'd:/marmalade/6.1/modules/iw2d'
p417
sbag235
(g367
g237
Ntp418
Rp419
(dp420
g371
I01
sg372
I00
sg265
S'd:/marmalade/6.1/s3e'
p421
sbasS'macros'
p422
(dp423
S'IW_USE_CALLSTACK'
p424
NsS'IW_SDK'
p425
NsS'I3D_PLATFORM_S3E'
p426
NsS'IW_MKF_LIBJPEG'
p427
NsS'I3D_OS_S3E'
p428
NsS'IW_MKF_TINICONV'
p429
NsS'IW_APP_VERSION'
p430
S'"1.0"'
p431
sS'IW_MKF_IWRESMANAGER'
p432
NsS'IW_MKF_IWUTIL'
p433
NsS'IW_MKF_IWGEOM'
p434
NsS'IW_ASSERTION_CHANNEL_2D'
p435
S'1'
p436
sS'IW_APP_NAME'
p437
S'"memorygame"'
p438
sS'IW_MKF_IWGXFONT'
p439
NsS'IW_PLATFORM_S3E'
p440
NsS'IW_MKF_ZLIB'
p441
NsS'IW_MKF_IWGX'
p442
NsS'IW_USE_ASSERTIONS'
p443
NsS'_CRT_SECURE_NO_DEPRECATE'
p444
NsS'IW_MKF_IWGL'
p445
NsS'IW_MKF_LIBPNG'
p446
NsS'IW_DEBUG'
p447
NsS'IW_USE_TRACING'
p448
NsS'S3E_INCLUDE_LEGACY'
p449
NsS'__S3E__'
p450
NsS'IW_MKF_IW2D'
p451
NssS'done_warnings'
p452
(dp453
sS'subprojects'
p454
(dp455
Vc:\u005cusers\u005cdreambit\u005cappdata\u005croaming\u005cmarmalade\u005cpackages\u005c6.1.1\u005clibjpeg_6b\u005clibjpeg.mkf
p456
S'libjpeg'
p457
sg145
S'iwgeom'
p458
sg150
S'iwresmanager'
p459
sVc:\u005cusers\u005cdreambit\u005cappdata\u005croaming\u005cmarmalade\u005cpackages\u005c6.1.1\u005clibpng_1.2.34\u005clibpng.mkf
p460
S'libpng'
p461
sg152
S'iwgxfont'
p462
sg144
S'iwgx'
p463
sVc:\u005cusers\u005cdreambit\u005cappdata\u005croaming\u005cmarmalade\u005cpackages\u005c6.1.1\u005ctiniconv_1.0.1\u005ctiniconv.mkf
p464
S'tiniconv'
p465
sg143
S'iw2d'
p466
sg151
S'iwgl'
p467
sVc:\u005cusers\u005cdreambit\u005cappdata\u005croaming\u005cmarmalade\u005cpackages\u005c6.1.1\u005czlib_1.2.4\u005czlib.mkf
p468
S'zlib'
p469
sg146
S'iwutil'
p470
ssS'deployments'
p471
(dp472
S'Default'
p473
g235
(cdeployment
Deployment
p474
g237
Ntp475
Rp476
(dp477
S'got_version'
p478
I0
sS'assets'
p479
g473
sS'mkb'
p480
g239
sS'target'
p481
Nsg272
(lp482
sS'options'
p483
(dp484
S'iphone-link-lib'
p485
(lp486
sS'game-icf'
p487
NsS'iphone-icon-high-res'
p488
NsS'win32-pref-windowposy'
p489
NsS'win32-pref-windowposx'
p490
NsS'bada-appsecret'
p491
NsS'playbook-author'
p492
NsS'winmobile-icon32'
p493
NsS'linux-ext-lib'
p494
(lp495
sS'target-folder'
p496
NsS'iphone-splashscreen-landscape'
p497
NsS'ngi-splashscreen-port'
p498
NsS'psp-discversion'
p499
NsS'lgtv-use-drm'
p500
NsS'nds-bannertitle-sp'
p501
NsS'symbian-platsecflags'
p502
NsS'psp-producer'
p503
NsS'iphone-icon-ipad-search-high-res'
p504
NsS'iphone-provisioning-profile'
p505
NsS'copyright'
p506
NsS'winmobile-png45'
p507
NsS'iphone-link-libdir'
p508
(lp509
sS'symbian-cert'
p510
NsS'nds-bannertitle-hn'
p511
NsS'brew-depends'
p512
NsS'winmobile-png60'
p513
NsS'winmobile-nouninstall'
p514
NsS'brew-mif'
p515
NsS'android-icon-hdpi'
p516
NsS'iphone-ipad-only'
p517
NsS'iphone-splash-full-orient'
p518
NsS'iphone-bundle-url-name'
p519
NsS'android-aliasname'
p520
NsS'iphone-splash-retina-generate'
p521
NsS'psp-dlgmanual'
p522
NsS'iphone-backgroundmode-audio'
p523
NsS'android-pkgname'
p524
NsS'webos-memory'
p525
NsS'brew-uid'
p526
NsS'android-keypass'
p527
NsS'ngi-uid'
p528
NsS'symbian-locationsupport'
p529
NsS'iphone-signing-host'
p530
NsS'ngi-install-sisx-only'
p531
NsS'nds-bannertitle-jp'
p532
NsS'name'
p533
NsS'symbian-run-on-install'
p534
NsS'osx-info-plist'
p535
NsS'symbian-icon1-format'
p536
NsS'uiq3-uid'
p537
NsS'psp-dlgcontentid'
p538
NsS'ngi-gcce-loader'
p539
NsS'auto-derbh'
p540
NsS'arch'
p541
NsS'bada-use-partner-privileges'
p542
NsS'nds-bannertitle-it'
p543
NsS'playbook-authorid'
p544
NsS'psp-copyright'
p545
NsS'ngi-achievements'
p546
NsS'splashscreen'
p547
NsS'symbian-soundrecordsupport'
p548
NsS'symbian-icon2-format'
p549
NsS'long-caption'
p550
NsS'iphone-icon-settings-high-res'
p551
NsS'android-manifest'
p552
NsS'ngi-splash-producer'
p553
NsS'winmobile-icon16'
p554
NsS's3e-compression'
p555
NsS'ngi-game-extras'
p556
NsS'iphone-link-opts'
p557
(lp558
sS'iphone-region'
p559
NsS'uiq3-icon3-mask'
p560
NsS'winmobile-start-menu-folder'
p561
NsS'brew-clsid'
p562
NsS'brew-encoding'
p563
NsS'symbian-icon1'
p564
NsS'symbian-icon2'
p565
NsS'ngi-icon1'
p566
NsS'nds-makercode'
p567
NsS'ngi-icon3'
p568
NsS'ngi-icon2'
p569
NsS'ngi-icon4'
p570
NsS'osx-ext-dll'
p571
(lp572
sS'version'
p573
NsS'bada-manifest'
p574
NsS'provider'
p575
NsS'iphone-prerendered-icon'
p576
NsS'iphone-appid'
p577
NsS'playbook-keystore'
p578
NsS'nds-initialcode'
p579
NsS'ngi-splashscreen-land'
p580
NsS'symbian-osexecsupport'
p581
NsS'winmobile-icon64'
p582
NsS'iphone-persistent-wifi'
p583
NsS'symbian7-uid'
p584
NsS'winmobile-setup-dll'
p585
NsS'android-external-jars'
p586
(lp587
sS'android-install-location'
p588
NsS'olddeploytoolstyle'
p589
NsS'nds-privatesavedatasize'
p590
NsS'symbian9-uid'
p591
NsS'nds-bannertitle-cn'
p592
NsS'winmobile-trace-file'
p593
NsS'playbook-storepass'
p594
NsS'ngi-no-assets'
p595
NsS'android-icon-ldpi'
p596
NsS'psp-appversion'
p597
NsS'networking'
p598
NsS'winmobile-install-folder'
p599
NsS'ngi-metadata'
p600
NsS'android-external-res'
p601
(lp602
sS'manufacturer'
p603
NsS'android-icon-gallery'
p604
NsS'bada-signed'
p605
NsS'nds-publicsavedatasize'
p606
NsS'iphone-apple-wwdr-cert'
p607
NsS'psp-snd0'
p608
NsS'iphone-extra-sections'
p609
NsS'iphone-nosign'
p610
NsS'caption'
p611
NsS'android-icon'
p612
NsS'iphone-icon-large'
p613
NsS'android-storepass'
p614
NsS'iphone-info-plist'
p615
NsS'ngi-arena-config'
p616
NsS'android-extra-manifest'
p617
(lp618
sS'iphone-icon-ipad-search'
p619
NsS'android-custom-activity'
p620
NsS'version-minor'
p621
NsS'iphone-icon-ipad'
p622
NsS'bada-appid'
p623
NsS'iphone-distribution-key'
p624
NsS'iphone-link-libdirs'
p625
(lp626
sS'symbian-maxheapsize'
p627
NsS'embed-icf'
p628
NsS'psp-titlename'
p629
NsS'symbian-icon1-mask'
p630
NsS'psp-parentallevel'
p631
NsS'priv-sign-key'
p632
NsS'webos-appinfo'
p633
NsS'symbian-cert-key'
p634
NsS'winmobile-ampd-part-number'
p635
NsS'webos-appid'
p636
NsS'android-icon-nonstandard'
p637
NsS'uiq3-icon2'
p638
NsS'iphone-icon-settings'
p639
NsS'ngi-gameinfo'
p640
NsS'iphone-distribution-cert'
p641
NsS'osx-icon'
p642
NsS'symbian-disable-ecompxl'
p643
NsS'splashscreen-auto-onblack'
p644
NsS'icon'
p645
NsS'nds-romheadertemplate'
p646
NsS'webos-icon'
p647
NsS'ngi-arena-rss'
p648
NsS'nds-bannertitle-en'
p649
NsS'win32-ext-dll'
p650
(lp651
sS'psp-dlgicon0'
p652
NsS'iphone-development-key'
p653
NsS'psp-discid'
p654
NsS'winmobile-icon48'
p655
NsS'uiq3-icon1-mask'
p656
NsS'nds-titlename'
p657
NsS'android-so'
p658
(lp659
sS'android-supports-gl-texture'
p660
(lp661
sS'bada-splash'
p662
NsS'version-revision'
p663
NsS'android-icon-mdpi'
p664
NsS'android-keystore'
p665
NsS'uiq3-icon2-format'
p666
NsS'version-string'
p667
NsS'winmobile-png90'
p668
NsS'iphone-icon-ipad-high-res'
p669
NsS'iphone-disable-ipad'
p670
NsS'uiq3-icon1-format'
p671
NsS'iphone-bundle-url-schemes'
p672
NsS'nds-icon'
p673
NsS'ngi-arena-locales'
p674
NsS'iphone-development-cert'
p675
NsS'ngi-filemanager-lib'
p676
NsS'android_extra_strings'
p677
NsS'playbook-icon'
p678
NsS'uid'
p679
NsS'iphone-signing-identity'
p680
NsS'brew-icon-medium'
p681
NsS'ngi-key'
p682
NsS'android-extra-application-manifest'
p683
(lp684
sS'pkguid-as-uid'
p685
NsS'symbian-icon1-mask-black'
p686
NsS'pub-sign-key'
p687
NsS'nds-bannertitle-fr'
p688
NsS'win32-pref-windowtitle'
p689
NsS'symbian8-uid'
p690
NsS'splashscreen-use-all'
p691
NsS'android-unsigned'
p692
NsS'brew-priviledges'
p693
NsS'ngi-cert'
p694
NsS'brew-icon-small'
p695
NsS'psp-dlgpic2'
p696
NsS'bada-icon'
p697
NsS'psp-dlgpic0'
p698
NsS'lgtv_l9-use-drm'
p699
NsS'psp-pic0'
p700
NsS'psp-pic1'
p701
NsS'iphone-icon'
p702
NsS'psp-icon0'
p703
NsS'psp-icon1'
p704
NsS'uiq3-icon3-format'
p705
NsS'version-major'
p706
NsS'iphone_bundle_localisations'
p707
NsS'winmobile-icon'
p708
NsS'symbian-keypwd'
p709
NsS'iphone-no-splash'
p710
NsS'playbook-access-shared'
p711
NsS'psp-dlghealthwarning'
p712
NsS'iphone-link-libs'
p713
(lp714
sS'ngi-filemanager-dll'
p715
NsS'iphone-splash'
p716
NsS'nds-bannertitle-ge'
p717
NsS'android_icon_gallery'
p718
NsS'brew-icon-large'
p719
NsS'iphone-app-fonts'
p720
NsS'symbian-icon2-mask'
p721
NsS'iphone-sign-for-distribution'
p722
NsS'psp-dlgprotectdocument'
p723
NsS'winmobile-cab-compress'
p724
NsS'uiq3-icon3'
p725
NsS'uiq3-icon1'
p726
NsS'itunes-artwork'
p727
NsS'win32-icon'
p728
NsS'assets'
p729
NsS'symbian-key'
p730
NsS'app-icf'
p731
NsS'ngi-arena-rsc'
p732
NsS'brew-compress-loader'
p733
NsS'uiq3-icon2-mask'
p734
NsS'symbian-icon2-mask-black'
p735
NsS'symbian-icon-svg'
p736
NsS'android-extra-strings'
p737
NsS'iphone-splashscreen-portrait'
p738
NsS'iphone-bundle-localisations'
p739
Nssg265
g473
sbssS'platform'
p740
S'S3E'
p741
sg52
S'1.0'
p742
sS'arcade_platform'
p743
g4
sS'extensions'
p744
(dp745
sS'source_groups_tree'
p746
(dp747
S'src'
p748
(dp749
S'c:/Users/dreambit/Documents/memorygame/src/game.cpp'
p750
(lp751
I1
a(dp752
asS'c:/Users/dreambit/Documents/memorygame/h/game.h'
p753
(lp754
I1
ag752
asS'c:/Users/dreambit/Documents/memorygame/src/main.cpp'
p755
(lp756
I1
ag752
assS'(libpng)'
p757
(dp758
Vc:/users/dreambit/appdata/roaming/marmalade/packages/6.1.1/libpng_1.2.34/h/png.h
p759
(lp760
I1
a(dp761
asVc:/users/dreambit/appdata/roaming/marmalade/packages/6.1.1/libpng_1.2.34/h/pngconf.h
p762
(lp763
I1
ag761
asVc:/users/dreambit/appdata/roaming/marmalade/packages/6.1.1/libpng_1.2.34/libpng.mkf
p764
(lp765
I1
a(dp766
assS'(libjpeg)'
p767
(dp768
Vc:/users/dreambit/appdata/roaming/marmalade/packages/6.1.1/libjpeg_6b/h/jpegint.h
p769
(lp770
I1
a(dp771
asVc:/users/dreambit/appdata/roaming/marmalade/packages/6.1.1/libjpeg_6b/h/jdct.h
p772
(lp773
I1
ag771
asVc:/users/dreambit/appdata/roaming/marmalade/packages/6.1.1/libjpeg_6b/h/jversion.h
p774
(lp775
I1
ag771
asVc:/users/dreambit/appdata/roaming/marmalade/packages/6.1.1/libjpeg_6b/h/transupp.h
p776
(lp777
I1
ag771
asVc:/users/dreambit/appdata/roaming/marmalade/packages/6.1.1/libjpeg_6b/h/cderror.h
p778
(lp779
I1
ag771
asVc:/users/dreambit/appdata/roaming/marmalade/packages/6.1.1/libjpeg_6b/h/jinclude.h
p780
(lp781
I1
ag771
asVc:/users/dreambit/appdata/roaming/marmalade/packages/6.1.1/libjpeg_6b/h/jchuff.h
p782
(lp783
I1
ag771
asVc:/users/dreambit/appdata/roaming/marmalade/packages/6.1.1/libjpeg_6b/libjpeg.mkf
p784
(lp785
I1
a(dp786
asVc:/users/dreambit/appdata/roaming/marmalade/packages/6.1.1/libjpeg_6b/h/cdjpeg.h
p787
(lp788
I1
ag771
asVc:/users/dreambit/appdata/roaming/marmalade/packages/6.1.1/libjpeg_6b/h/jerror.h
p789
(lp790
I1
ag771
asVc:/users/dreambit/appdata/roaming/marmalade/packages/6.1.1/libjpeg_6b/h/jconfig.h
p791
(lp792
I1
ag771
asVc:/users/dreambit/appdata/roaming/marmalade/packages/6.1.1/libjpeg_6b/h/jmorecfg.h
p793
(lp794
I1
ag771
asVc:/users/dreambit/appdata/roaming/marmalade/packages/6.1.1/libjpeg_6b/h/jpeglib.h
p795
(lp796
I1
ag771
asVc:/users/dreambit/appdata/roaming/marmalade/packages/6.1.1/libjpeg_6b/h/jdhuff.h
p797
(lp798
I1
ag771
asVc:/users/dreambit/appdata/roaming/marmalade/packages/6.1.1/libjpeg_6b/h/jmemsys.h
p799
(lp800
I1
ag771
assS'(tiniconv)'
p801
(dp802
Vc:/users/dreambit/appdata/roaming/marmalade/packages/6.1.1/tiniconv_1.0.1/h/tiniconv.h
p803
(lp804
I1
a(dp805
asVc:/users/dreambit/appdata/roaming/marmalade/packages/6.1.1/tiniconv_1.0.1/h/tiniconv_int.h
p806
(lp807
I1
ag805
asVc:/users/dreambit/appdata/roaming/marmalade/packages/6.1.1/tiniconv_1.0.1/tiniconv.mkf
p808
(lp809
I1
a(dp810
assS"'Marmalade Studio'"
p811
(dp812
S'iwgl'
p813
(dp814
S'd:/marmalade/6.1/modules/iwgl/iwgl.mkf'
p815
(lp816
I1
a(dp817
asS'd:/marmalade/6.1/modules/iwgl/h/IwGL.h'
p818
(lp819
I1
a(dp820
asS'd:/marmalade/6.1/modules/iwgl/docs/iwgl.config.txt'
p821
(lp822
I1
ag820
asS'd:/marmalade/6.1/modules/iwgl/h/IwGLExt.h'
p823
(lp824
I1
ag820
assS'iw2d'
p825
(dp826
S'd:/marmalade/6.1/modules/iw2d/iw2d.mkf'
p827
(lp828
I1
a(dp829
asS'd:/marmalade/6.1/modules/iw2d/docs/iw2d.config.txt'
p830
(lp831
I1
a(dp832
asS'd:/marmalade/6.1/modules/iw2d/h/Iw2D.h'
p833
(lp834
I1
ag832
asS'd:/marmalade/6.1/modules/iw2d/docs/iw2d_public.defines.txt'
p835
(lp836
I1
ag832
assS'iwgxfont'
p837
(dp838
S'd:/marmalade/6.1/modules/iwgxfont/h/IwGxFontPreparedData.h'
p839
(lp840
I1
a(dp841
asS'd:/marmalade/6.1/modules/iwgxfont/h/IwGxFont.h'
p842
(lp843
I1
ag841
asS'd:/marmalade/6.1/modules/iwgxfont/iwgxfont.mkf'
p844
(lp845
I1
a(dp846
asS'd:/marmalade/6.1/modules/iwgxfont/docs/iwgxfont.config.txt'
p847
(lp848
I1
ag841
asS'd:/marmalade/6.1/modules/iwgxfont/h/IwGxFontState.h'
p849
(lp850
I1
ag841
asS'd:/marmalade/6.1/modules/iwgxfont/h/IwGxFontContainer.h'
p851
(lp852
I1
ag841
asS'd:/marmalade/6.1/modules/iwgxfont/docs/iwgxfont_public.defines.txt'
p853
(lp854
I1
ag841
asS'd:/marmalade/6.1/modules/iwgxfont/h/IwGxFontGlyph.h'
p855
(lp856
I1
ag841
asS'd:/marmalade/6.1/modules/iwgxfont/h/IwGxFontTypes.h'
p857
(lp858
I1
ag841
assS'iwgeom'
p859
(dp860
S'd:/marmalade/6.1/modules/iwgeom/h/IwGeomFMat.h'
p861
(lp862
I1
a(dp863
asS'd:/marmalade/6.1/modules/iwgeom/iwgeom.mkf'
p864
(lp865
I1
a(dp866
asS'd:/marmalade/6.1/modules/iwgeom/h/IwGeom.h'
p867
(lp868
I1
ag863
asS'd:/marmalade/6.1/modules/iwgeom/h/IwGeomFPlane.h'
p869
(lp870
I1
ag863
asS'd:/marmalade/6.1/modules/iwgeom/h/IwGeomFVec2.h'
p871
(lp872
I1
ag863
asS'd:/marmalade/6.1/modules/iwgeom/h/IwGeomFVec4.h'
p873
(lp874
I1
ag863
asS'd:/marmalade/6.1/modules/iwgeom/h/IwGeomIntersect.h'
p875
(lp876
I1
ag863
asS'd:/marmalade/6.1/modules/iwgeom/h/IwGeomLegacy.h'
p877
(lp878
I1
ag863
asS'd:/marmalade/6.1/modules/iwgeom/h/IwGeomSQuat.h'
p879
(lp880
I1
ag863
asS'd:/marmalade/6.1/modules/iwgeom/h/IwGeomFBBox.h'
p881
(lp882
I1
ag863
asS'd:/marmalade/6.1/modules/iwgeom/h/IwGeomVec2.h'
p883
(lp884
I1
ag863
asS'd:/marmalade/6.1/modules/iwgeom/h/IwGeomMat.h'
p885
(lp886
I1
ag863
asS'd:/marmalade/6.1/modules/iwgeom/h/IwGeomVec3.h'
p887
(lp888
I1
ag863
asS'd:/marmalade/6.1/modules/iwgeom/h/IwGeomQuat.h'
p889
(lp890
I1
ag863
asS'd:/marmalade/6.1/modules/iwgeom/h/IwGeomSVec4.h'
p891
(lp892
I1
ag863
asS'd:/marmalade/6.1/modules/iwgeom/h/IwGeomCore.h'
p893
(lp894
I1
ag863
asS'd:/marmalade/6.1/modules/iwgeom/h/IwGeomFIntersect.h'
p895
(lp896
I1
ag863
asS'd:/marmalade/6.1/modules/iwgeom/h/IwGeomSVec2.h'
p897
(lp898
I1
ag863
asS'd:/marmalade/6.1/modules/iwgeom/h/IwGeomMat2D.h'
p899
(lp900
I1
ag863
asS'd:/marmalade/6.1/modules/iwgeom/h/IwGeomVec4.h'
p901
(lp902
I1
ag863
asS'd:/marmalade/6.1/modules/iwgeom/h/IwGeomSVec3.h'
p903
(lp904
I1
ag863
asS'd:/marmalade/6.1/modules/iwgeom/h/IwGeomFQuat.h'
p905
(lp906
I1
ag863
asS'd:/marmalade/6.1/modules/iwgeom/h/IwGeomPlane.h'
p907
(lp908
I1
ag863
asS'd:/marmalade/6.1/modules/iwgeom/h/IwGeomBBox.h'
p909
(lp910
I1
ag863
asS'd:/marmalade/6.1/modules/iwgeom/h/IwGeomSqrt.h'
p911
(lp912
I1
ag863
asS'd:/marmalade/6.1/modules/iwgeom/h/IwGeomFVec3.h'
p913
(lp914
I1
ag863
asS'd:/marmalade/6.1/modules/iwgeom/h/IwGeomFSphere.h'
p915
(lp916
I1
ag863
asS'd:/marmalade/6.1/modules/iwgeom/docs/iwgeom.config.txt'
p917
(lp918
I1
ag863
asS'd:/marmalade/6.1/modules/iwgeom/h/IwGeomFMat2D.h'
p919
(lp920
I1
ag863
asS'd:/marmalade/6.1/modules/iwgeom/h/IwGeomSphere.h'
p921
(lp922
I1
ag863
asS'd:/marmalade/6.1/modules/iwgeom/h/IwGeomMenu.h'
p923
(lp924
I1
ag863
asS'd:/marmalade/6.1/modules/iwgeom/h/IwGeomVec.h'
p925
(lp926
I1
ag863
assS'iwresmanager'
p927
(dp928
S'd:/marmalade/6.1/modules/iwresmanager/h/IwResHandlerGROUP.h'
p929
(lp930
I1
a(dp931
asS'd:/marmalade/6.1/modules/iwresmanager/h/IwResManager.h'
p932
(lp933
I1
ag931
asS'd:/marmalade/6.1/modules/iwresmanager/h/IwResHandlerImage.h'
p934
(lp935
I1
ag931
asS'd:/marmalade/6.1/modules/iwresmanager/h/IwResHandlerITX.h'
p936
(lp937
I1
ag931
asS'd:/marmalade/6.1/modules/iwresmanager/h/IwResManagerClass.h'
p938
(lp939
I1
ag931
asS'd:/marmalade/6.1/modules/iwresmanager/docs/iwresmanager.config.txt'
p940
(lp941
I1
ag931
asS'd:/marmalade/6.1/modules/iwresmanager/iwresmanager.mkf'
p942
(lp943
I1
a(dp944
asS'd:/marmalade/6.1/modules/iwresmanager/h/IwResSerialise.h'
p945
(lp946
I1
ag931
asS'd:/marmalade/6.1/modules/iwresmanager/h/IwResGroup.h'
p947
(lp948
I1
ag931
asS'd:/marmalade/6.1/modules/iwresmanager/h/IwResHandler.h'
p949
(lp950
I1
ag931
assS'iwgx'
p951
(dp952
S'd:/marmalade/6.1/modules/iwgx/h/IwClip.inl'
p953
(lp954
I1
a(dp955
asS'd:/marmalade/6.1/modules/iwgx/h/IwGxPrint.h'
p956
(lp957
I1
ag955
asS'd:/marmalade/6.1/modules/iwgx/h/IwTPage.h'
p958
(lp959
I1
ag955
asS'd:/marmalade/6.1/modules/iwgx/h/IwGxSurface.h'
p960
(lp961
I1
ag955
asS'd:/marmalade/6.1/modules/iwgx/h/IwGxFuncTable.h'
p962
(lp963
I1
ag955
asS'd:/marmalade/6.1/modules/iwgx/h/IwGxTransformSW.h'
p964
(lp965
I1
ag955
asS'd:/marmalade/6.1/modules/iwgx/h/IwGxError.h'
p966
(lp967
I1
ag955
asS'd:/marmalade/6.1/modules/iwgx/h/IwColour.h'
p968
(lp969
I1
ag955
asS'd:/marmalade/6.1/modules/iwgx/h/IwDebugPrim.h'
p970
(lp971
I1
ag955
asS'd:/marmalade/6.1/modules/iwgx/h/IwGxShaderTechnique.h'
p972
(lp973
I1
ag955
asS'd:/marmalade/6.1/modules/iwgx/docs/iwgx.config.txt'
p974
(lp975
I1
ag955
asS'd:/marmalade/6.1/modules/iwgx/h/IwMatAnim.h'
p976
(lp977
I1
ag955
asS'd:/marmalade/6.1/modules/iwgx/h/IwMaterial.h'
p978
(lp979
I1
ag955
asS'd:/marmalade/6.1/modules/iwgx/h/IwGxMetrics.h'
p980
(lp981
I1
ag955
asS'd:/marmalade/6.1/modules/iwgx/iwgx.mkf'
p982
(lp983
I1
a(dp984
asS'd:/marmalade/6.1/modules/iwgx/h/IwFColour.h'
p985
(lp986
I1
ag955
asS'd:/marmalade/6.1/modules/iwgx/h/IwClip.h'
p987
(lp988
I1
ag955
asS'd:/marmalade/6.1/modules/iwgx/h/IwTexture.h'
p989
(lp990
I1
ag955
asS'd:/marmalade/6.1/modules/iwgx/h/IwGxDebug.h'
p991
(lp992
I1
ag955
asS'd:/marmalade/6.1/modules/iwgx/docs/iwgx_public.defines.txt'
p993
(lp994
I1
ag955
asS'd:/marmalade/6.1/modules/iwgx/h/IwGxTypes.h'
p995
(lp996
I1
ag955
asS'd:/marmalade/6.1/modules/iwgx/h/IwGxState.h'
p997
(lp998
I1
ag955
asS'd:/marmalade/6.1/modules/iwgx/h/IwGx.h'
p999
(lp1000
I1
ag955
asS'd:/marmalade/6.1/modules/iwgx/h/IwGxStream.h'
p1001
(lp1002
I1
ag955
asS'd:/marmalade/6.1/modules/iwgx/h/IwResHandlerMTL.h'
p1003
(lp1004
I1
ag955
assS'iwutil'
p1005
(dp1006
S'd:/marmalade/6.1/modules/iwutil/h/IwAllocator.h'
p1007
(lp1008
I1
a(dp1009
asS'd:/marmalade/6.1/modules/iwutil/h/IwMath.h'
p1010
(lp1011
I1
ag1009
asS'd:/marmalade/6.1/modules/iwutil/h/IwCopyingPtr.h'
p1012
(lp1013
I1
ag1009
asS'd:/marmalade/6.1/modules/iwutil/h/IwUtilInitTerm.h'
p1014
(lp1015
I1
ag1009
asS'd:/marmalade/6.1/modules/iwutil/h/IwEvent.h'
p1016
(lp1017
I1
ag1009
asS'd:/marmalade/6.1/modules/iwutil/h/IwRuntime.h'
p1018
(lp1019
I1
ag1009
asS'd:/marmalade/6.1/modules/iwutil/h/IwChar.h'
p1020
(lp1021
I1
ag1009
asS'd:/marmalade/6.1/modules/iwutil/h/IwMemory.h'
p1022
(lp1023
I1
ag1009
asS'd:/marmalade/6.1/modules/iwutil/h/IwProfileMenu.h'
p1024
(lp1025
I1
ag1009
asS'd:/marmalade/6.1/modules/iwutil/h/IwOptimiseSpeed.h'
p1026
(lp1027
I1
ag1009
asS'd:/marmalade/6.1/modules/iwutil/h/IwMemManagerDL.h'
p1028
(lp1029
I1
ag1009
asS'd:/marmalade/6.1/modules/iwutil/h/IwHashString.h'
p1030
(lp1031
I1
ag1009
asS'd:/marmalade/6.1/modules/iwutil/h/IwManagedList.h'
p1032
(lp1033
I1
ag1009
asS'd:/marmalade/6.1/modules/iwutil/h/IwSerialise.h'
p1034
(lp1035
I1
ag1009
asS'd:/marmalade/6.1/modules/iwutil/h/IwArray.h'
p1036
(lp1037
I1
ag1009
asS'd:/marmalade/6.1/modules/iwutil/h/IwBuffer.h'
p1038
(lp1039
I1
ag1009
asS'd:/marmalade/6.1/modules/iwutil/h/IwImage.h'
p1040
(lp1041
I1
ag1009
asS'd:/marmalade/6.1/modules/iwutil/h/IwUtil.h'
p1042
(lp1043
I1
ag1009
asS'd:/marmalade/6.1/modules/iwutil/h/IwString.h'
p1044
(lp1045
I1
ag1009
asS'd:/marmalade/6.1/modules/iwutil/h/IwFile.h'
p1046
(lp1047
I1
ag1009
asS'd:/marmalade/6.1/modules/iwutil/h/IwMenu.h'
p1048
(lp1049
I1
ag1009
asS'd:/marmalade/6.1/modules/iwutil/h/IwDivTable.h'
p1050
(lp1051
I1
ag1009
asS'd:/marmalade/6.1/modules/iwutil/h/IwTextParseable.h'
p1052
(lp1053
I1
ag1009
asS'd:/marmalade/6.1/modules/iwutil/h/IwTextParserITX.h'
p1054
(lp1055
I1
ag1009
asS'd:/marmalade/6.1/modules/iwutil/h/IwPath.h'
p1056
(lp1057
I1
ag1009
asS'd:/marmalade/6.1/modules/iwutil/h/IwSingleton.h'
p1058
(lp1059
I1
ag1009
asS'd:/marmalade/6.1/modules/iwutil/h/IwOptimiseSize.h'
p1060
(lp1061
I1
ag1009
asS'd:/marmalade/6.1/modules/iwutil/h/IwUncopyable.h'
p1062
(lp1063
I1
ag1009
asS'd:/marmalade/6.1/modules/iwutil/h/IwKeymap.h'
p1064
(lp1065
I1
ag1009
asS'd:/marmalade/6.1/modules/iwutil/h/IwManaged.h'
p1066
(lp1067
I1
ag1009
asS'd:/marmalade/6.1/modules/iwutil/h/IwOptimiseARM.h'
p1068
(lp1069
I1
ag1009
asS'd:/marmalade/6.1/modules/iwutil/h/IwMemBucketHelpers.h'
p1070
(lp1071
I1
ag1009
asS'd:/marmalade/6.1/modules/iwutil/h/IwTextParser.h'
p1072
(lp1073
I1
ag1009
asS'd:/marmalade/6.1/modules/iwutil/h/IwCore.h'
p1074
(lp1075
I1
ag1009
asS'd:/marmalade/6.1/modules/iwutil/h/IwUTF8.h'
p1076
(lp1077
I1
ag1009
asS'd:/marmalade/6.1/modules/iwutil/h/IwClassFactory.h'
p1078
(lp1079
I1
ag1009
asS'd:/marmalade/6.1/modules/iwutil/h/IwList.h'
p1080
(lp1081
I1
ag1009
asS'd:/marmalade/6.1/modules/iwutil/iwutil.mkf'
p1082
(lp1083
I1
a(dp1084
asS'd:/marmalade/6.1/modules/iwutil/h/IwResource.h'
p1085
(lp1086
I1
ag1009
asS'd:/marmalade/6.1/modules/iwutil/h/IwMemBucket.h'
p1087
(lp1088
I1
ag1009
asS'd:/marmalade/6.1/modules/iwutil/h/IwFibre.h'
p1089
(lp1090
I1
ag1009
asS'd:/marmalade/6.1/modules/iwutil/h/IwVariableBitField.h'
p1091
(lp1092
I1
ag1009
asS'd:/marmalade/6.1/modules/iwutil/h/IwOptimiseThumb.h'
p1093
(lp1094
I1
ag1009
asS'd:/marmalade/6.1/modules/iwutil/h/IwDivide.h'
p1095
(lp1096
I1
ag1009
asS'd:/marmalade/6.1/modules/iwutil/h/IwAutoFile.h'
p1097
(lp1098
I1
ag1009
asS'd:/marmalade/6.1/modules/iwutil/h/IwRandom.h'
p1099
(lp1100
I1
ag1009
asS'd:/marmalade/6.1/modules/iwutil/h/IwImageHelper.h'
p1101
(lp1102
I1
ag1009
asS'd:/marmalade/6.1/modules/iwutil/h/IwDebug.h'
p1103
(lp1104
I1
ag1009
asS'd:/marmalade/6.1/modules/iwutil/h/IwTypes.h'
p1105
(lp1106
I1
ag1009
asS'd:/marmalade/6.1/modules/iwutil/docs/iwutil.config.txt'
p1107
(lp1108
I1
ag1009
asssS'(zlib)'
p1109
(dp1110
Vc:/users/dreambit/appdata/roaming/marmalade/packages/6.1.1/zlib_1.2.4/h/zconf.h
p1111
(lp1112
I1
a(dp1113
asVc:/users/dreambit/appdata/roaming/marmalade/packages/6.1.1/zlib_1.2.4/h/zlib.h
p1114
(lp1115
I1
ag1113
asVc:/users/dreambit/appdata/roaming/marmalade/packages/6.1.1/zlib_1.2.4/zlib.mkf
p1116
(lp1117
I1
a(dp1118
asssS'files'
p1119
(dp1120
S'IwGxFontPreparedData.h'
p1121
g235
(cmkb_main
File
p1122
g237
Ntp1123
Rp1124
(dp1125
S'flags'
p1126
g841
sS'group'
p1127
(lp1128
S"'Marmalade Studio'"
p1129
ag837
asg265
g839
sbsS'iterator'
p1130
g235
(g1122
g237
Ntp1131
Rp1132
(dp1133
g1126
(dp1134
sg1127
(lp1135
S"'Marmalade System (S3E)'"
p1136
aS'stdc headers'
p1137
aS'c++'
p1138
asg265
S'd:/marmalade/6.1/s3e/h/std/c++/iterator'
p1139
sbsS'IwGeomPlane.h'
p1140
g235
(g1122
g237
Ntp1141
Rp1142
(dp1143
g1126
g863
sg1127
(lp1144
S"'Marmalade Studio'"
p1145
ag859
asg265
g907
sbsS's3e.h'
p1146
g235
(g1122
g237
Ntp1147
Rp1148
(dp1149
g1126
g1134
sg1127
(lp1150
g1136
asg265
S'd:/marmalade/6.1/s3e/h/s3e.h'
p1151
sbsS'errno.h'
p1152
g235
(g1122
g237
Ntp1153
Rp1154
(dp1155
g1126
g1134
sg1127
(lp1156
g1136
aS'stdc headers'
p1157
asg265
S'd:/marmalade/6.1/s3e/h/std/errno.h'
p1158
sbsS'IwSingleton.h'
p1159
g235
(g1122
g237
Ntp1160
Rp1161
(dp1162
g1126
g1009
sg1127
(lp1163
S"'Marmalade Studio'"
p1164
ag1005
asg265
g1058
sbsS'dlfcn.h'
p1165
g235
(g1122
g237
Ntp1166
Rp1167
(dp1168
g1126
g1134
sg1127
g1156
sg265
S'd:/marmalade/6.1/s3e/h/std/dlfcn.h'
p1169
sbsS'stdio_streambuf'
p1170
g235
(g1122
g237
Ntp1171
Rp1172
(dp1173
g1126
g1134
sg1127
g1135
sg265
S'd:/marmalade/6.1/s3e/h/std/c++/stdio_streambuf'
p1174
sbsS'sched.h'
p1175
g235
(g1122
g237
Ntp1176
Rp1177
(dp1178
g1126
g1134
sg1127
g1156
sg265
S'd:/marmalade/6.1/s3e/h/std/sched.h'
p1179
sbsS'IwGeomFMat2D.h'
p1180
g235
(g1122
g237
Ntp1181
Rp1182
(dp1183
g1126
g863
sg1127
g1144
sg265
g919
sbsS's3eExt.h'
p1184
g235
(g1122
g237
Ntp1185
Rp1186
(dp1187
g1126
g1134
sg1127
g1150
sg265
S'd:/marmalade/6.1/s3e/h/s3eExt.h'
p1188
sbsS'grp.h'
p1189
g235
(g1122
g237
Ntp1190
Rp1191
(dp1192
g1126
g1134
sg1127
g1156
sg265
S'd:/marmalade/6.1/s3e/h/std/grp.h'
p1193
sbsS'list'
p1194
g235
(g1122
g237
Ntp1195
Rp1196
(dp1197
g1126
g1134
sg1127
g1135
sg265
S'd:/marmalade/6.1/s3e/h/std/c++/list'
p1198
sbsS'istream'
p1199
g235
(g1122
g237
Ntp1200
Rp1201
(dp1202
g1126
g1134
sg1127
g1135
sg265
S'd:/marmalade/6.1/s3e/h/std/c++/istream'
p1203
sbsVjpeglib.h
p1204
g235
(g1122
g237
Ntp1205
Rp1206
(dp1207
g1126
g771
sg1127
(lp1208
g767
asg265
g795
sbsS'iw2d_public.defines.txt'
p1209
g235
(g1122
g237
Ntp1210
Rp1211
(dp1212
g1126
g832
sg1127
(lp1213
S"'Marmalade Studio'"
p1214
ag825
asg265
g835
sbsS'iostream.h'
p1215
g235
(g1122
g237
Ntp1216
Rp1217
(dp1218
g1126
g1134
sg1127
g1135
sg265
S'd:/marmalade/6.1/s3e/h/std/c++/iostream.h'
p1219
sbsS'string'
p1220
g235
(g1122
g237
Ntp1221
Rp1222
(dp1223
g1126
g1134
sg1127
g1135
sg265
S'd:/marmalade/6.1/s3e/h/std/c++/string'
p1224
sbsS'IwMemory.h'
p1225
g235
(g1122
g237
Ntp1226
Rp1227
(dp1228
g1126
g1009
sg1127
g1163
sg265
g1022
sbsS'IwGL.h'
p1229
g235
(g1122
g237
Ntp1230
Rp1231
(dp1232
g1126
g820
sg1127
(lp1233
S"'Marmalade Studio'"
p1234
ag813
asg265
g818
sbsS'iw2d.config.txt'
p1235
g235
(g1122
g237
Ntp1236
Rp1237
(dp1238
g1126
g832
sg1127
g1213
sg265
g830
sbsS'iomanip'
p1239
g235
(g1122
g237
Ntp1240
Rp1241
(dp1242
g1126
g1134
sg1127
g1135
sg265
S'd:/marmalade/6.1/s3e/h/std/c++/iomanip'
p1243
sbsS'iwgeom.mkf'
p1244
g235
(g1122
g237
Ntp1245
Rp1246
(dp1247
g1126
g866
sg1127
g1144
sg265
g864
sbsS'IwGxError.h'
p1248
g235
(g1122
g237
Ntp1249
Rp1250
(dp1251
g1126
g955
sg1127
(lp1252
S"'Marmalade Studio'"
p1253
ag951
asg265
g966
sbsS'IwGeom.h'
p1254
g235
(g1122
g237
Ntp1255
Rp1256
(dp1257
g1126
g863
sg1127
g1144
sg265
g867
sbsS'IwGeomVec4.h'
p1258
g235
(g1122
g237
Ntp1259
Rp1260
(dp1261
g1126
g863
sg1127
g1144
sg265
g901
sbsS'dir.h'
p1262
g235
(g1122
g237
Ntp1263
Rp1264
(dp1265
g1126
g1134
sg1127
(lp1266
g1136
aS'stdc headers'
p1267
aS'sys'
p1268
asg265
S'd:/marmalade/6.1/s3e/h/std/sys/dir.h'
p1269
sbsS'locale.h'
p1270
g235
(g1122
g237
Ntp1271
Rp1272
(dp1273
g1126
g1134
sg1127
g1156
sg265
S'd:/marmalade/6.1/s3e/h/std/locale.h'
p1274
sbsS'vector'
p1275
g235
(g1122
g237
Ntp1276
Rp1277
(dp1278
g1126
g1134
sg1127
g1135
sg265
S'd:/marmalade/6.1/s3e/h/std/c++/vector'
p1279
sbsS'IwManaged.h'
p1280
g235
(g1122
g237
Ntp1281
Rp1282
(dp1283
g1126
g1009
sg1127
g1163
sg265
g1066
sbsS's3eCompass.h'
p1284
g235
(g1122
g237
Ntp1285
Rp1286
(dp1287
g1126
g1134
sg1127
g1150
sg265
S'd:/marmalade/6.1/s3e/h/s3eCompass.h'
p1288
sbsVcderror.h
p1289
g235
(g1122
g237
Ntp1290
Rp1291
(dp1292
g1126
g771
sg1127
g1208
sg265
g778
sbsS'climits'
p1293
g235
(g1122
g237
Ntp1294
Rp1295
(dp1296
g1126
g1134
sg1127
g1135
sg265
S'd:/marmalade/6.1/s3e/h/std/c++/climits'
p1297
sbsS's3eVibra.h'
p1298
g235
(g1122
g237
Ntp1299
Rp1300
(dp1301
g1126
g1134
sg1127
g1150
sg265
S'd:/marmalade/6.1/s3e/h/s3eVibra.h'
p1302
sbsVjversion.h
p1303
g235
(g1122
g237
Ntp1304
Rp1305
(dp1306
g1126
g771
sg1127
g1208
sg265
g774
sbsS'fnmatch.h'
p1307
g235
(g1122
g237
Ntp1308
Rp1309
(dp1310
g1126
g1134
sg1127
g1156
sg265
S'd:/marmalade/6.1/s3e/h/std/fnmatch.h'
p1311
sbsS'IwGxState.h'
p1312
g235
(g1122
g237
Ntp1313
Rp1314
(dp1315
g1126
g955
sg1127
g1252
sg265
g997
sbsS's3eAudio.h'
p1316
g235
(g1122
g237
Ntp1317
Rp1318
(dp1319
g1126
g1134
sg1127
g1150
sg265
S'd:/marmalade/6.1/s3e/h/s3eAudio.h'
p1320
sbsS's3eSurface.h'
p1321
g235
(g1122
g237
Ntp1322
Rp1323
(dp1324
g1126
g1134
sg1127
g1150
sg265
S'd:/marmalade/6.1/s3e/h/s3eSurface.h'
p1325
sbsS'new'
p1326
g235
(g1122
g237
Ntp1327
Rp1328
(dp1329
g1126
g1134
sg1127
g1135
sg265
S'd:/marmalade/6.1/s3e/h/std/c++/new'
p1330
sbsS's3eWindow.h'
p1331
g235
(g1122
g237
Ntp1332
Rp1333
(dp1334
g1126
g1134
sg1127
(lp1335
g1136
aS'Extensions'
p1336
asg265
S'd:/marmalade/6.1/s3e/h/ext/s3eWindow.h'
p1337
sbsS'IwBuffer.h'
p1338
g235
(g1122
g237
Ntp1339
Rp1340
(dp1341
g1126
g1009
sg1127
g1163
sg265
g1038
sbsS's3eOSExec.h'
p1342
g235
(g1122
g237
Ntp1343
Rp1344
(dp1345
g1126
g1134
sg1127
g1335
sg265
S'd:/marmalade/6.1/s3e/h/ext/s3eOSExec.h'
p1346
sbsS'IwGxTransformSW.h'
p1347
g235
(g1122
g237
Ntp1348
Rp1349
(dp1350
g1126
g955
sg1127
g1252
sg265
g964
sbsS'unistd.h'
p1351
g235
(g1122
g237
Ntp1352
Rp1353
(dp1354
g1126
g1134
sg1127
g1156
sg265
S'd:/marmalade/6.1/s3e/h/std/unistd.h'
p1355
sbsS'iwgxfont.config.txt'
p1356
g235
(g1122
g237
Ntp1357
Rp1358
(dp1359
g1126
g841
sg1127
g1128
sg265
g847
sbsS'gl2platform.h'
p1360
g235
(g1122
g237
Ntp1361
Rp1362
(dp1363
g1126
g1134
sg1127
(lp1364
g1136
aS'GL'
p1365
aS'GLES 2.0'
p1366
asg265
S'd:/marmalade/6.1/s3e/h/GLES2/gl2platform.h'
p1367
sbsS'IwResManagerClass.h'
p1368
g235
(g1122
g237
Ntp1369
Rp1370
(dp1371
g1126
g931
sg1127
(lp1372
g811
ag927
asg265
g938
sbsS'queue'
p1373
g235
(g1122
g237
Ntp1374
Rp1375
(dp1376
g1126
g1134
sg1127
g1135
sg265
S'd:/marmalade/6.1/s3e/h/std/c++/queue'
p1377
sbsS'time_1.h'
p1378
g235
(g1122
g237
Ntp1379
Rp1380
(dp1381
g1126
g1134
sg1127
g1266
sg265
S'd:/marmalade/6.1/s3e/h/std/sys/time.h'
p1382
sbsS'Iw2D.h'
p1383
g235
(g1122
g237
Ntp1384
Rp1385
(dp1386
g1126
g832
sg1127
g1213
sg265
g833
sbsS'IwGeomVec2.h'
p1387
g235
(g1122
g237
Ntp1388
Rp1389
(dp1390
g1126
g863
sg1127
g1144
sg265
g883
sbsS's3eDevice.h'
p1391
g235
(g1122
g237
Ntp1392
Rp1393
(dp1394
g1126
g1134
sg1127
g1150
sg265
S'd:/marmalade/6.1/s3e/h/s3eDevice.h'
p1395
sbsS'malloc.h'
p1396
g235
(g1122
g237
Ntp1397
Rp1398
(dp1399
g1126
g1134
sg1127
g1156
sg265
S'd:/marmalade/6.1/s3e/h/std/malloc.h'
p1400
sbsS'stdarg.h'
p1401
g235
(g1122
g237
Ntp1402
Rp1403
(dp1404
g1126
g1134
sg1127
g1156
sg265
S'd:/marmalade/6.1/s3e/h/std/stdarg.h'
p1405
sbsS'IwGeomCore.h'
p1406
g235
(g1122
g237
Ntp1407
Rp1408
(dp1409
g1126
g863
sg1127
g1144
sg265
g893
sbsS'endian.h'
p1410
g235
(g1122
g237
Ntp1411
Rp1412
(dp1413
g1126
g1134
sg1127
g1156
sg265
S'd:/marmalade/6.1/s3e/h/std/endian.h'
p1414
sbsS'glob.h'
p1415
g235
(g1122
g237
Ntp1416
Rp1417
(dp1418
g1126
g1134
sg1127
g1156
sg265
S'd:/marmalade/6.1/s3e/h/std/glob.h'
p1419
sbsS'fstream'
p1420
g235
(g1122
g237
Ntp1421
Rp1422
(dp1423
g1126
g1134
sg1127
g1135
sg265
S'd:/marmalade/6.1/s3e/h/std/c++/fstream'
p1424
sbsS's3eCamera.h'
p1425
g235
(g1122
g237
Ntp1426
Rp1427
(dp1428
g1126
g1134
sg1127
g1150
sg265
S'd:/marmalade/6.1/s3e/h/s3eCamera.h'
p1429
sbsVjconfig.h
p1430
g235
(g1122
g237
Ntp1431
Rp1432
(dp1433
g1126
g771
sg1127
g1208
sg265
g791
sbsS'memory'
p1434
g235
(g1122
g237
Ntp1435
Rp1436
(dp1437
g1126
g1134
sg1127
g1135
sg265
S'd:/marmalade/6.1/s3e/h/std/c++/memory'
p1438
sbsS'egl.h'
p1439
g235
(g1122
g237
Ntp1440
Rp1441
(dp1442
g1126
g1134
sg1127
(lp1443
g1136
aS'GL'
p1444
aS'EGL'
p1445
asg265
S'd:/marmalade/6.1/s3e/h/EGL/egl.h'
p1446
sbsS'IwClip.inl'
p1447
g235
(g1122
g237
Ntp1448
Rp1449
(dp1450
g1126
g955
sg1127
g1252
sg265
g953
sbsS'IwMemManagerDL.h'
p1451
g235
(g1122
g237
Ntp1452
Rp1453
(dp1454
g1126
g1009
sg1127
g1163
sg265
g1028
sbsS'deque'
p1455
g235
(g1122
g237
Ntp1456
Rp1457
(dp1458
g1126
g1134
sg1127
g1135
sg265
S'd:/marmalade/6.1/s3e/h/std/c++/deque'
p1459
sbsS'IwString.h'
p1460
g235
(g1122
g237
Ntp1461
Rp1462
(dp1463
g1126
g1009
sg1127
g1163
sg265
g1044
sbsS'cctype'
p1464
g235
(g1122
g237
Ntp1465
Rp1466
(dp1467
g1126
g1134
sg1127
g1135
sg265
S'd:/marmalade/6.1/s3e/h/std/c++/cctype'
p1468
sbsS'iwutil.mkf'
p1469
g235
(g1122
g237
Ntp1470
Rp1471
(dp1472
g1126
g1084
sg1127
g1163
sg265
g1082
sbsS'csignal'
p1473
g235
(g1122
g237
Ntp1474
Rp1475
(dp1476
g1126
g1134
sg1127
g1135
sg265
S'd:/marmalade/6.1/s3e/h/std/c++/csignal'
p1477
sbsS'float.h'
p1478
g235
(g1122
g237
Ntp1479
Rp1480
(dp1481
g1126
g1134
sg1127
g1156
sg265
S'd:/marmalade/6.1/s3e/h/std/float.h'
p1482
sbsS'pthread_alloc'
p1483
g235
(g1122
g237
Ntp1484
Rp1485
(dp1486
g1126
g1134
sg1127
g1135
sg265
S'd:/marmalade/6.1/s3e/h/std/c++/pthread_alloc'
p1487
sbsS'getopt.h'
p1488
g235
(g1122
g237
Ntp1489
Rp1490
(dp1491
g1126
g1134
sg1127
g1156
sg265
S'd:/marmalade/6.1/s3e/h/std/getopt.h'
p1492
sbsS'IwOptimiseARM.h'
p1493
g235
(g1122
g237
Ntp1494
Rp1495
(dp1496
g1126
g1009
sg1127
g1163
sg265
g1068
sbsS'times.h'
p1497
g235
(g1122
g237
Ntp1498
Rp1499
(dp1500
g1126
g1134
sg1127
g1266
sg265
S'd:/marmalade/6.1/s3e/h/std/sys/times.h'
p1501
sbsS'IwGeomFSphere.h'
p1502
g235
(g1122
g237
Ntp1503
Rp1504
(dp1505
g1126
g863
sg1127
g1144
sg265
g915
sbsS'game.h'
p1506
g235
(g1122
g237
Ntp1507
Rp1508
(dp1509
g1126
g752
sg1127
(lp1510
g748
asg265
g753
sbsS'IwTypes.h'
p1511
g235
(g1122
g237
Ntp1512
Rp1513
(dp1514
g1126
g1009
sg1127
g1163
sg265
g1105
sbsS'IwGxMetrics.h'
p1515
g235
(g1122
g237
Ntp1516
Rp1517
(dp1518
g1126
g955
sg1127
g1252
sg265
g980
sbsS's3eCompression.h'
p1519
g235
(g1122
g237
Ntp1520
Rp1521
(dp1522
g1126
g1134
sg1127
g1150
sg265
S'd:/marmalade/6.1/s3e/h/s3eCompression.h'
p1523
sbsS'langinfo.h'
p1524
g235
(g1122
g237
Ntp1525
Rp1526
(dp1527
g1126
g1134
sg1127
g1156
sg265
S'd:/marmalade/6.1/s3e/h/std/langinfo.h'
p1528
sbsS's3edebugHeap.h'
p1529
g235
(g1122
g237
Ntp1530
Rp1531
(dp1532
g1126
g1134
sg1127
g1335
sg265
S'd:/marmalade/6.1/s3e/h/ext/s3edebugHeap.h'
p1533
sbsS'AirplayVersion.h'
p1534
g235
(g1122
g237
Ntp1535
Rp1536
(dp1537
g1126
g1134
sg1127
g1150
sg265
S'd:/marmalade/6.1/s3e/h/AirplayVersion.h'
p1538
sbsS'gl2extimg.h'
p1539
g235
(g1122
g237
Ntp1540
Rp1541
(dp1542
g1126
g1134
sg1127
g1364
sg265
S'd:/marmalade/6.1/s3e/h/GLES2/gl2extimg.h'
p1543
sbsS'app.config.txt'
p1544
g235
(g1122
g237
Ntp1545
Rp1546
(dp1547
g1126
(dp1548
sg1127
g4
sg265
S'c:/Users/dreambit/Documents/memorygame/data/app.config.txt'
p1549
sbsS'IwGeomSqrt.h'
p1550
g235
(g1122
g237
Ntp1551
Rp1552
(dp1553
g1126
g863
sg1127
g1144
sg265
g911
sbsVtiniconv_int.h
p1554
g235
(g1122
g237
Ntp1555
Rp1556
(dp1557
g1126
g805
sg1127
(lp1558
g801
asg265
g806
sbsS'syslog.h'
p1559
g235
(g1122
g237
Ntp1560
Rp1561
(dp1562
g1126
g1134
sg1127
g1156
sg265
S'd:/marmalade/6.1/s3e/h/std/syslog.h'
p1563
sbsS'IwGxFontTypes.h'
p1564
g235
(g1122
g237
Ntp1565
Rp1566
(dp1567
g1126
g841
sg1127
g1128
sg265
g857
sbsS'IwGeomFIntersect.h'
p1568
g235
(g1122
g237
Ntp1569
Rp1570
(dp1571
g1126
g863
sg1127
g1144
sg265
g895
sbsS'hash_map'
p1572
g235
(g1122
g237
Ntp1573
Rp1574
(dp1575
g1126
g1134
sg1127
g1135
sg265
S'd:/marmalade/6.1/s3e/h/std/c++/hash_map'
p1576
sbsS's3e.mkf'
p1577
g235
(g1122
g237
Ntp1578
Rp1579
(dp1580
g1126
(dp1581
sg1127
g1150
sg265
S'd:/marmalade/6.1/s3e/s3e.mkf'
p1582
sbsS's3eOSReadString.h'
p1583
g235
(g1122
g237
Ntp1584
Rp1585
(dp1586
g1126
g1134
sg1127
g1335
sg265
S'd:/marmalade/6.1/s3e/h/ext/s3eOSReadString.h'
p1587
sbsS'map'
p1588
g235
(g1122
g237
Ntp1589
Rp1590
(dp1591
g1126
g1134
sg1127
g1135
sg265
S'd:/marmalade/6.1/s3e/h/std/c++/map'
p1592
sbsS'IwOptimiseSpeed.h'
p1593
g235
(g1122
g237
Ntp1594
Rp1595
(dp1596
g1126
g1009
sg1127
g1163
sg265
g1026
sbsS'msl_string.h'
p1597
g235
(g1122
g237
Ntp1598
Rp1599
(dp1600
g1126
g1134
sg1127
g1135
sg265
S'd:/marmalade/6.1/s3e/h/std/c++/msl_string.h'
p1601
sbsS'select.h'
p1602
g235
(g1122
g237
Ntp1603
Rp1604
(dp1605
g1126
g1134
sg1127
g1266
sg265
S'd:/marmalade/6.1/s3e/h/std/sys/select.h'
p1606
sbsVzlib.mkf
p1607
g235
(g1122
g237
Ntp1608
Rp1609
(dp1610
g1126
g1118
sg1127
(lp1611
g1109
asg265
g1116
sbsS'signal.h'
p1612
g235
(g1122
g237
Ntp1613
Rp1614
(dp1615
g1126
g1134
sg1127
g1156
sg265
S'd:/marmalade/6.1/s3e/h/std/signal.h'
p1616
sbsS'sigcontext.h'
p1617
g235
(g1122
g237
Ntp1618
Rp1619
(dp1620
g1126
g1134
sg1127
g1156
sg265
S'd:/marmalade/6.1/s3e/h/std/sigcontext.h'
p1621
sbsVlibpng.mkf
p1622
g235
(g1122
g237
Ntp1623
Rp1624
(dp1625
g1126
g766
sg1127
(lp1626
g757
asg265
g764
sbsS's3eClipboard.h'
p1627
g235
(g1122
g237
Ntp1628
Rp1629
(dp1630
g1126
g1134
sg1127
g1150
sg265
S'd:/marmalade/6.1/s3e/h/s3eClipboard.h'
p1631
sbsS'IwGxFuncTable.h'
p1632
g235
(g1122
g237
Ntp1633
Rp1634
(dp1635
g1126
g955
sg1127
g1252
sg265
g962
sbsS'IwResHandlerGROUP.h'
p1636
g235
(g1122
g237
Ntp1637
Rp1638
(dp1639
g1126
g931
sg1127
g1372
sg265
g929
sbsS's3eDebug.h'
p1640
g235
(g1122
g237
Ntp1641
Rp1642
(dp1643
g1126
g1134
sg1127
g1150
sg265
S'd:/marmalade/6.1/s3e/h/s3eDebug.h'
p1644
sbsS'socket.h'
p1645
g235
(g1122
g237
Ntp1646
Rp1647
(dp1648
g1126
g1134
sg1127
g1266
sg265
S'd:/marmalade/6.1/s3e/h/std/sys/socket.h'
p1649
sbsS'glext.h'
p1650
g235
(g1122
g237
Ntp1651
Rp1652
(dp1653
g1126
g1134
sg1127
(lp1654
g1136
aS'GL'
p1655
aS'GLES 1.x'
p1656
asg265
S'd:/marmalade/6.1/s3e/h/GLES/glext.h'
p1657
sbsS'typeinfo.h'
p1658
g235
(g1122
g237
Ntp1659
Rp1660
(dp1661
g1126
g1134
sg1127
g1135
sg265
S'd:/marmalade/6.1/s3e/h/std/c++/typeinfo.h'
p1662
sbsS'typeinfo'
p1663
g235
(g1122
g237
Ntp1664
Rp1665
(dp1666
g1126
g1134
sg1127
g1135
sg265
S'd:/marmalade/6.1/s3e/h/std/c++/typeinfo'
p1667
sbsS'fstream.h'
p1668
g235
(g1122
g237
Ntp1669
Rp1670
(dp1671
g1126
g1134
sg1127
g1135
sg265
S'd:/marmalade/6.1/s3e/h/std/c++/fstream.h'
p1672
sbsS's3ePointer.h'
p1673
g235
(g1122
g237
Ntp1674
Rp1675
(dp1676
g1126
g1134
sg1127
g1150
sg265
S'd:/marmalade/6.1/s3e/h/s3ePointer.h'
p1677
sbsS'iw2d.mkf'
p1678
g235
(g1122
g237
Ntp1679
Rp1680
(dp1681
g1126
g829
sg1127
g1213
sg265
g827
sbsS's3eGL.h'
p1682
g235
(g1122
g237
Ntp1683
Rp1684
(dp1685
g1126
g1134
sg1127
g1150
sg265
S'd:/marmalade/6.1/s3e/h/s3eGL.h'
p1686
sbsS'IwGeomFVec2.h'
p1687
g235
(g1122
g237
Ntp1688
Rp1689
(dp1690
g1126
g863
sg1127
g1144
sg265
g871
sbsS'IwGeomSVec4.h'
p1691
g235
(g1122
g237
Ntp1692
Rp1693
(dp1694
g1126
g863
sg1127
g1144
sg265
g891
sbsS'slist'
p1695
g235
(g1122
g237
Ntp1696
Rp1697
(dp1698
g1126
g1134
sg1127
g1135
sg265
S'd:/marmalade/6.1/s3e/h/std/c++/slist'
p1699
sbsS'poll.h'
p1700
g235
(g1122
g237
Ntp1701
Rp1702
(dp1703
g1126
g1134
sg1127
g1156
sg265
S'd:/marmalade/6.1/s3e/h/std/poll.h'
p1704
sbsS'IwMatAnim.h'
p1705
g235
(g1122
g237
Ntp1706
Rp1707
(dp1708
g1126
g955
sg1127
g1252
sg265
g976
sbsS'IwGeomFVec4.h'
p1709
g235
(g1122
g237
Ntp1710
Rp1711
(dp1712
g1126
g863
sg1127
g1144
sg265
g873
sbsS'IwGx.h'
p1713
g235
(g1122
g237
Ntp1714
Rp1715
(dp1716
g1126
g955
sg1127
g1252
sg265
g999
sbsS'valarray'
p1717
g235
(g1122
g237
Ntp1718
Rp1719
(dp1720
g1126
g1134
sg1127
g1135
sg265
S'd:/marmalade/6.1/s3e/h/std/c++/valarray'
p1721
sbsS'iosfwd'
p1722
g235
(g1122
g237
Ntp1723
Rp1724
(dp1725
g1126
g1134
sg1127
g1135
sg265
S'd:/marmalade/6.1/s3e/h/std/c++/iosfwd'
p1726
sbsS'gl2.h'
p1727
g235
(g1122
g237
Ntp1728
Rp1729
(dp1730
g1126
g1134
sg1127
g1364
sg265
S'd:/marmalade/6.1/s3e/h/GLES2/gl2.h'
p1731
sbsS'IwManagedList.h'
p1732
g235
(g1122
g237
Ntp1733
Rp1734
(dp1735
g1126
g1009
sg1127
g1163
sg265
g1032
sbsS'stdiostream.h'
p1736
g235
(g1122
g237
Ntp1737
Rp1738
(dp1739
g1126
g1134
sg1127
g1135
sg265
S'd:/marmalade/6.1/s3e/h/std/c++/stdiostream.h'
p1740
sbsS'mem.h'
p1741
g235
(g1122
g237
Ntp1742
Rp1743
(dp1744
g1126
g1134
sg1127
g1135
sg265
S'd:/marmalade/6.1/s3e/h/std/c++/mem.h'
p1745
sbsS'main.cpp'
p1746
g235
(g1122
g237
Ntp1747
Rp1748
(dp1749
g1126
g752
sg1127
g1510
sg265
g755
sbsVzconf.h
p1750
g235
(g1122
g237
Ntp1751
Rp1752
(dp1753
g1126
g1113
sg1127
g1611
sg265
g1111
sbsS's3e.config.txt'
p1754
g235
(g1122
g237
Ntp1755
Rp1756
(dp1757
g1126
g1134
sg1127
g1150
sg265
S'd:/marmalade/6.1/s3e/s3e.config.txt'
p1758
sbsS'numeric'
p1759
g235
(g1122
g237
Ntp1760
Rp1761
(dp1762
g1126
g1134
sg1127
g1135
sg265
S'd:/marmalade/6.1/s3e/h/std/c++/numeric'
p1763
sbsS'utime.h'
p1764
g235
(g1122
g237
Ntp1765
Rp1766
(dp1767
g1126
g1134
sg1127
g1156
sg265
S'd:/marmalade/6.1/s3e/h/std/utime.h'
p1768
sbsVjdhuff.h
p1769
g235
(g1122
g237
Ntp1770
Rp1771
(dp1772
g1126
g771
sg1127
g1208
sg265
g797
sbsS'IwGxStream.h'
p1773
g235
(g1122
g237
Ntp1774
Rp1775
(dp1776
g1126
g955
sg1127
g1252
sg265
g1001
sbsS'IwImage.h'
p1777
g235
(g1122
g237
Ntp1778
Rp1779
(dp1780
g1126
g1009
sg1127
g1163
sg265
g1040
sbsS's3eImagePicker.h'
p1781
g235
(g1122
g237
Ntp1782
Rp1783
(dp1784
g1126
g1134
sg1127
g1335
sg265
S'd:/marmalade/6.1/s3e/h/ext/s3eImagePicker.h'
p1785
sbsS'IwTextParserITX.h'
p1786
g235
(g1122
g237
Ntp1787
Rp1788
(dp1789
g1126
g1009
sg1127
g1163
sg265
g1054
sbsS'stdlib.h'
p1790
g235
(g1122
g237
Ntp1791
Rp1792
(dp1793
g1126
g1134
sg1127
g1156
sg265
S'd:/marmalade/6.1/s3e/h/std/stdlib.h'
p1794
sbsS'IwCopyingPtr.h'
p1795
g235
(g1122
g237
Ntp1796
Rp1797
(dp1798
g1126
g1009
sg1127
g1163
sg265
g1012
sbsS'iostream'
p1799
g235
(g1122
g237
Ntp1800
Rp1801
(dp1802
g1126
g1134
sg1127
g1135
sg265
S'd:/marmalade/6.1/s3e/h/std/c++/iostream'
p1803
sbsVpng.h
p1804
g235
(g1122
g237
Ntp1805
Rp1806
(dp1807
g1126
g761
sg1127
g1626
sg265
g759
sbsS'stddef.h'
p1808
g235
(g1122
g237
Ntp1809
Rp1810
(dp1811
g1126
g1134
sg1127
g1156
sg265
S'd:/marmalade/6.1/s3e/h/std/stddef.h'
p1812
sbsS'setjmp_win32.h'
p1813
g235
(g1122
g237
Ntp1814
Rp1815
(dp1816
g1126
g1134
sg1127
g1156
sg265
S'd:/marmalade/6.1/s3e/h/std/setjmp_win32.h'
p1817
sbsS'IwGxPrint.h'
p1818
g235
(g1122
g237
Ntp1819
Rp1820
(dp1821
g1126
g955
sg1127
g1252
sg265
g956
sbsS'IwGeomSVec2.h'
p1822
g235
(g1122
g237
Ntp1823
Rp1824
(dp1825
g1126
g863
sg1127
g1144
sg265
g897
sbsS'streambuf.h'
p1826
g235
(g1122
g237
Ntp1827
Rp1828
(dp1829
g1126
g1134
sg1127
g1135
sg265
S'd:/marmalade/6.1/s3e/h/std/c++/streambuf.h'
p1830
sbsS'IwGeomFPlane.h'
p1831
g235
(g1122
g237
Ntp1832
Rp1833
(dp1834
g1126
g863
sg1127
g1144
sg265
g869
sbsS'wchar.h'
p1835
g235
(g1122
g237
Ntp1836
Rp1837
(dp1838
g1126
g1134
sg1127
g1156
sg265
S'd:/marmalade/6.1/s3e/h/std/wchar.h'
p1839
sbsS's3eCameraCapture.h'
p1840
g235
(g1122
g237
Ntp1841
Rp1842
(dp1843
g1126
g1134
sg1127
g1335
sg265
S'd:/marmalade/6.1/s3e/h/ext/s3eCameraCapture.h'
p1844
sbsS'eglext.h'
p1845
g235
(g1122
g237
Ntp1846
Rp1847
(dp1848
g1126
g1134
sg1127
g1443
sg265
S'd:/marmalade/6.1/s3e/h/EGL/eglext.h'
p1849
sbsS'IwResHandlerImage.h'
p1850
g235
(g1122
g237
Ntp1851
Rp1852
(dp1853
g1126
g931
sg1127
g1372
sg265
g934
sbsS'strstream.h'
p1854
g235
(g1122
g237
Ntp1855
Rp1856
(dp1857
g1126
g1134
sg1127
g1135
sg265
S'd:/marmalade/6.1/s3e/h/std/c++/strstream.h'
p1858
sbsVtiniconv.h
p1859
g235
(g1122
g237
Ntp1860
Rp1861
(dp1862
g1126
g805
sg1127
g1558
sg265
g803
sbsS'IwGLExt.h'
p1863
g235
(g1122
g237
Ntp1864
Rp1865
(dp1866
g1126
g820
sg1127
g1233
sg265
g823
sbsS'app.icf'
p1867
g235
(g1122
g237
Ntp1868
Rp1869
(dp1870
g1126
(dp1871
sg1127
g4
sg265
S'c:/Users/dreambit/Documents/memorygame/data/app.icf'
p1872
sbsS'IwClassFactory.h'
p1873
g235
(g1122
g237
Ntp1874
Rp1875
(dp1876
g1126
g1009
sg1127
g1163
sg265
g1078
sbsS'file.h'
p1877
g235
(g1122
g237
Ntp1878
Rp1879
(dp1880
g1126
g1134
sg1127
g1266
sg265
S'd:/marmalade/6.1/s3e/h/std/sys/file.h'
p1881
sbsS'cstring'
p1882
g235
(g1122
g237
Ntp1883
Rp1884
(dp1885
g1126
g1134
sg1127
g1135
sg265
S'd:/marmalade/6.1/s3e/h/std/c++/cstring'
p1886
sbsS'iwutil.config.txt'
p1887
g235
(g1122
g237
Ntp1888
Rp1889
(dp1890
g1126
g1009
sg1127
g1163
sg265
g1107
sbsS's3eSMS.h'
p1891
g235
(g1122
g237
Ntp1892
Rp1893
(dp1894
g1126
g1134
sg1127
g1335
sg265
S'd:/marmalade/6.1/s3e/h/ext/s3eSMS.h'
p1895
sbsS'limits.h'
p1896
g235
(g1122
g237
Ntp1897
Rp1898
(dp1899
g1126
g1134
sg1127
g1156
sg265
S'd:/marmalade/6.1/s3e/h/std/limits.h'
p1900
sbsS'iwgl.config.txt'
p1901
g235
(g1122
g237
Ntp1902
Rp1903
(dp1904
g1126
g820
sg1127
g1233
sg265
g821
sbsS'iwgx_public.defines.txt'
p1905
g235
(g1122
g237
Ntp1906
Rp1907
(dp1908
g1126
g955
sg1127
g1252
sg265
g993
sbsS'IwMaterial.h'
p1909
g235
(g1122
g237
Ntp1910
Rp1911
(dp1912
g1126
g955
sg1127
g1252
sg265
g978
sbsS'IwGxSurface.h'
p1913
g235
(g1122
g237
Ntp1914
Rp1915
(dp1916
g1126
g955
sg1127
g1252
sg265
g960
sbsS's3eSocket.h'
p1917
g235
(g1122
g237
Ntp1918
Rp1919
(dp1920
g1126
g1134
sg1127
g1150
sg265
S'd:/marmalade/6.1/s3e/h/s3eSocket.h'
p1921
sbsS'IwAutoFile.h'
p1922
g235
(g1122
g237
Ntp1923
Rp1924
(dp1925
g1126
g1009
sg1127
g1163
sg265
g1097
sbsS'ipc.h'
p1926
g235
(g1122
g237
Ntp1927
Rp1928
(dp1929
g1126
g1134
sg1127
g1266
sg265
S'd:/marmalade/6.1/s3e/h/std/sys/ipc.h'
p1930
sbsS'poll_1.h'
p1931
g235
(g1122
g237
Ntp1932
Rp1933
(dp1934
g1126
g1134
sg1127
g1266
sg265
S'd:/marmalade/6.1/s3e/h/std/sys/poll.h'
p1935
sbsS's3eThread.h'
p1936
g235
(g1122
g237
Ntp1937
Rp1938
(dp1939
g1126
g1134
sg1127
g1150
sg265
S'd:/marmalade/6.1/s3e/h/s3eThread.h'
p1940
sbsS'ucontext.h'
p1941
g235
(g1122
g237
Ntp1942
Rp1943
(dp1944
g1126
g1134
sg1127
g1156
sg265
S'd:/marmalade/6.1/s3e/h/std/ucontext.h'
p1945
sbsS'time.h'
p1946
g235
(g1122
g237
Ntp1947
Rp1948
(dp1949
g1126
g1134
sg1127
g1156
sg265
S'd:/marmalade/6.1/s3e/h/std/time.h'
p1950
sbsVjchuff.h
p1951
g235
(g1122
g237
Ntp1952
Rp1953
(dp1954
g1126
g771
sg1127
g1208
sg265
g782
sbsS's3eSoundRecord.h'
p1955
g235
(g1122
g237
Ntp1956
Rp1957
(dp1958
g1126
g1134
sg1127
g1150
sg265
S'd:/marmalade/6.1/s3e/h/s3eSoundRecord.h'
p1959
sbsS'IwFibre.h'
p1960
g235
(g1122
g237
Ntp1961
Rp1962
(dp1963
g1126
g1009
sg1127
g1163
sg265
g1089
sbsS's3eVersion.h'
p1964
g235
(g1122
g237
Ntp1965
Rp1966
(dp1967
g1126
g1134
sg1127
g1150
sg265
S'd:/marmalade/6.1/s3e/h/s3eVersion.h'
p1968
sbsS'IwGxFontGlyph.h'
p1969
g235
(g1122
g237
Ntp1970
Rp1971
(dp1972
g1126
g841
sg1127
g1128
sg265
g855
sbsS's3eTypes.h'
p1973
g235
(g1122
g237
Ntp1974
Rp1975
(dp1976
g1126
g1134
sg1127
g1150
sg265
S'd:/marmalade/6.1/s3e/h/s3eTypes.h'
p1977
sbsS'signal_2.h'
p1978
g235
(g1122
g237
Ntp1979
Rp1980
(dp1981
g1126
g1134
sg1127
g1135
sg265
S'd:/marmalade/6.1/s3e/h/std/c++/signal.h'
p1982
sbsS'termios.h'
p1983
g235
(g1122
g237
Ntp1984
Rp1985
(dp1986
g1126
g1134
sg1127
g1156
sg265
S'd:/marmalade/6.1/s3e/h/std/termios.h'
p1987
sbsVjerror.h
p1988
g235
(g1122
g237
Ntp1989
Rp1990
(dp1991
g1126
g771
sg1127
g1208
sg265
g789
sbsS'cstdlib'
p1992
g235
(g1122
g237
Ntp1993
Rp1994
(dp1995
g1126
g1134
sg1127
g1135
sg265
S'd:/marmalade/6.1/s3e/h/std/c++/cstdlib'
p1996
sbsS's3eLocation.h'
p1997
g235
(g1122
g237
Ntp1998
Rp1999
(dp2000
g1126
g1134
sg1127
g1150
sg265
S'd:/marmalade/6.1/s3e/h/s3eLocation.h'
p2001
sbsS'IwMemBucketHelpers.h'
p2002
g235
(g1122
g237
Ntp2003
Rp2004
(dp2005
g1126
g1009
sg1127
g1163
sg265
g1070
sbsS's3eHash.h'
p2006
g235
(g1122
g237
Ntp2007
Rp2008
(dp2009
g1126
g1134
sg1127
g1150
sg265
S'd:/marmalade/6.1/s3e/h/s3eHash.h'
p2010
sbsS'IwGeomFMat.h'
p2011
g235
(g1122
g237
Ntp2012
Rp2013
(dp2014
g1126
g863
sg1127
g1144
sg265
g861
sbsS'type_traits.h'
p2015
g235
(g1122
g237
Ntp2016
Rp2017
(dp2018
g1126
g1134
sg1127
g1135
sg265
S'd:/marmalade/6.1/s3e/h/std/c++/type_traits.h'
p2019
sbsS'IwMenu.h'
p2020
g235
(g1122
g237
Ntp2021
Rp2022
(dp2023
g1126
g1009
sg1127
g1163
sg265
g1048
sbsS'IwResHandlerITX.h'
p2024
g235
(g1122
g237
Ntp2025
Rp2026
(dp2027
g1126
g931
sg1127
g1372
sg265
g936
sbsS'IwArray.h'
p2028
g235
(g1122
g237
Ntp2029
Rp2030
(dp2031
g1126
g1009
sg1127
g1163
sg265
g1036
sbsS'IwUTF8.h'
p2032
g235
(g1122
g237
Ntp2033
Rp2034
(dp2035
g1126
g1009
sg1127
g1163
sg265
g1076
sbsS'math_rvct.h'
p2036
g235
(g1122
g237
Ntp2037
Rp2038
(dp2039
g1126
g1134
sg1127
g1156
sg265
S'd:/marmalade/6.1/s3e/h/std/math_rvct.h'
p2040
sbsS'IwUtil.h'
p2041
g235
(g1122
g237
Ntp2042
Rp2043
(dp2044
g1126
g1009
sg1127
g1163
sg265
g1042
sbsS'IwGeomVec3.h'
p2045
g235
(g1122
g237
Ntp2046
Rp2047
(dp2048
g1126
g863
sg1127
g1144
sg265
g887
sbsS'wctype.h'
p2049
g235
(g1122
g237
Ntp2050
Rp2051
(dp2052
g1126
g1134
sg1127
g1156
sg265
S'd:/marmalade/6.1/s3e/h/std/wctype.h'
p2053
sbsS'cstddef'
p2054
g235
(g1122
g237
Ntp2055
Rp2056
(dp2057
g1126
g1134
sg1127
g1135
sg265
S'd:/marmalade/6.1/s3e/h/std/c++/cstddef'
p2058
sbsS'assert.h'
p2059
g235
(g1122
g237
Ntp2060
Rp2061
(dp2062
g1126
g1134
sg1127
g1156
sg265
S'd:/marmalade/6.1/s3e/h/std/assert.h'
p2063
sbsS'mman.h'
p2064
g235
(g1122
g237
Ntp2065
Rp2066
(dp2067
g1126
g1134
sg1127
g1266
sg265
S'd:/marmalade/6.1/s3e/h/std/sys/mman.h'
p2068
sbsS'IwRandom.h'
p2069
g235
(g1122
g237
Ntp2070
Rp2071
(dp2072
g1126
g1009
sg1127
g1163
sg265
g1099
sbsS'libgen.h'
p2073
g235
(g1122
g237
Ntp2074
Rp2075
(dp2076
g1126
g1134
sg1127
g1156
sg265
S'd:/marmalade/6.1/s3e/h/std/libgen.h'
p2077
sbsS'utsname.h'
p2078
g235
(g1122
g237
Ntp2079
Rp2080
(dp2081
g1126
g1134
sg1127
g1266
sg265
S'd:/marmalade/6.1/s3e/h/std/sys/utsname.h'
p2082
sbsS'wait.h'
p2083
g235
(g1122
g237
Ntp2084
Rp2085
(dp2086
g1126
g1134
sg1127
g1266
sg265
S'd:/marmalade/6.1/s3e/h/std/sys/wait.h'
p2087
sbsS'param.h'
p2088
g235
(g1122
g237
Ntp2089
Rp2090
(dp2091
g1126
g1134
sg1127
g1266
sg265
S'd:/marmalade/6.1/s3e/h/std/sys/param.h'
p2092
sbsS'IwDivide.h'
p2093
g235
(g1122
g237
Ntp2094
Rp2095
(dp2096
g1126
g1009
sg1127
g1163
sg265
g1095
sbsS'IwResManager.h'
p2097
g235
(g1122
g237
Ntp2098
Rp2099
(dp2100
g1126
g931
sg1127
g1372
sg265
g932
sbsS'ostream'
p2101
g235
(g1122
g237
Ntp2102
Rp2103
(dp2104
g1126
g1134
sg1127
g1135
sg265
S'd:/marmalade/6.1/s3e/h/std/c++/ostream'
p2105
sbsS'cwctype'
p2106
g235
(g1122
g237
Ntp2107
Rp2108
(dp2109
g1126
g1134
sg1127
g1135
sg265
S'd:/marmalade/6.1/s3e/h/std/c++/cwctype'
p2110
sbsS'set'
p2111
g235
(g1122
g237
Ntp2112
Rp2113
(dp2114
g1126
g1134
sg1127
g1135
sg265
S'd:/marmalade/6.1/s3e/h/std/c++/set'
p2115
sbsS'IwGeomSQuat.h'
p2116
g235
(g1122
g237
Ntp2117
Rp2118
(dp2119
g1126
g863
sg1127
g1144
sg265
g879
sbsS'locale'
p2120
g235
(g1122
g237
Ntp2121
Rp2122
(dp2123
g1126
g1134
sg1127
g1135
sg265
S'd:/marmalade/6.1/s3e/h/std/c++/locale'
p2124
sbsS'cstdio'
p2125
g235
(g1122
g237
Ntp2126
Rp2127
(dp2128
g1126
g1134
sg1127
g1135
sg265
S'd:/marmalade/6.1/s3e/h/std/c++/cstdio'
p2129
sbsVcdjpeg.h
p2130
g235
(g1122
g237
Ntp2131
Rp2132
(dp2133
g1126
g771
sg1127
g1208
sg265
g787
sbsS'IwList.h'
p2134
g235
(g1122
g237
Ntp2135
Rp2136
(dp2137
g1126
g1009
sg1127
g1163
sg265
g1080
sbsS'inttypes.h'
p2138
g235
(g1122
g237
Ntp2139
Rp2140
(dp2141
g1126
g1134
sg1127
g1156
sg265
S'd:/marmalade/6.1/s3e/h/std/inttypes.h'
p2142
sbsS'dirent.h'
p2143
g235
(g1122
g237
Ntp2144
Rp2145
(dp2146
g1126
g1134
sg1127
g1156
sg265
S'd:/marmalade/6.1/s3e/h/std/dirent.h'
p2147
sbsS'IwFColour.h'
p2148
g235
(g1122
g237
Ntp2149
Rp2150
(dp2151
g1126
g955
sg1127
g1252
sg265
g985
sbsVtransupp.h
p2152
g235
(g1122
g237
Ntp2153
Rp2154
(dp2155
g1126
g771
sg1127
g1208
sg265
g776
sbsS'IwMath.h'
p2156
g235
(g1122
g237
Ntp2157
Rp2158
(dp2159
g1126
g1009
sg1127
g1163
sg265
g1010
sbsS'IwGeomQuat.h'
p2160
g235
(g1122
g237
Ntp2161
Rp2162
(dp2163
g1126
g863
sg1127
g1144
sg265
g889
sbsS'glplatform.h'
p2164
g235
(g1122
g237
Ntp2165
Rp2166
(dp2167
g1126
g1134
sg1127
g1654
sg265
S'd:/marmalade/6.1/s3e/h/GLES/glplatform.h'
p2168
sbsS'bitset'
p2169
g235
(g1122
g237
Ntp2170
Rp2171
(dp2172
g1126
g1134
sg1127
g1135
sg265
S'd:/marmalade/6.1/s3e/h/std/c++/bitset'
p2173
sbsS'alloca.h'
p2174
g235
(g1122
g237
Ntp2175
Rp2176
(dp2177
g1126
g1134
sg1127
g1156
sg265
S'd:/marmalade/6.1/s3e/h/std/alloca.h'
p2178
sbsS'IwResHandler.h'
p2179
g235
(g1122
g237
Ntp2180
Rp2181
(dp2182
g1126
g931
sg1127
g1372
sg265
g949
sbsS'IwResHandlerMTL.h'
p2183
g235
(g1122
g237
Ntp2184
Rp2185
(dp2186
g1126
g955
sg1127
g1252
sg265
g1003
sbsS'IwRuntime.h'
p2187
g235
(g1122
g237
Ntp2188
Rp2189
(dp2190
g1126
g1009
sg1127
g1163
sg265
g1018
sbsS'limits'
p2191
g235
(g1122
g237
Ntp2192
Rp2193
(dp2194
g1126
g1134
sg1127
g1135
sg265
S'd:/marmalade/6.1/s3e/h/std/c++/limits'
p2195
sbsS'IwGeomBBox.h'
p2196
g235
(g1122
g237
Ntp2197
Rp2198
(dp2199
g1126
g863
sg1127
g1144
sg265
g909
sbsS's3eContacts.h'
p2200
g235
(g1122
g237
Ntp2201
Rp2202
(dp2203
g1126
g1134
sg1127
g1150
sg265
S'd:/marmalade/6.1/s3e/h/s3eContacts.h'
p2204
sbsS's3eLicense.h'
p2205
g235
(g1122
g237
Ntp2206
Rp2207
(dp2208
g1126
g1134
sg1127
g1150
sg265
S'd:/marmalade/6.1/s3e/h/s3eLicense.h'
p2209
sbsS'iwgx.config.txt'
p2210
g235
(g1122
g237
Ntp2211
Rp2212
(dp2213
g1126
g955
sg1127
g1252
sg265
g974
sbsS'IwTextParser.h'
p2214
g235
(g1122
g237
Ntp2215
Rp2216
(dp2217
g1126
g1009
sg1127
g1163
sg265
g1072
sbsS's3eTimer.h'
p2218
g235
(g1122
g237
Ntp2219
Rp2220
(dp2221
g1126
g1134
sg1127
g1150
sg265
S'd:/marmalade/6.1/s3e/h/s3eTimer.h'
p2222
sbsS'IwGeomVec.h'
p2223
g235
(g1122
g237
Ntp2224
Rp2225
(dp2226
g1126
g863
sg1127
g1144
sg265
g925
sbsS'IwSerialise.h'
p2227
g235
(g1122
g237
Ntp2228
Rp2229
(dp2230
g1126
g1009
sg1127
g1163
sg265
g1034
sbsS'cstdarg'
p2231
g235
(g1122
g237
Ntp2232
Rp2233
(dp2234
g1126
g1134
sg1127
g1135
sg265
S'd:/marmalade/6.1/s3e/h/std/c++/cstdarg'
p2235
sbsS'gl2ext.h'
p2236
g235
(g1122
g237
Ntp2237
Rp2238
(dp2239
g1126
g1134
sg1127
g1364
sg265
S'd:/marmalade/6.1/s3e/h/GLES2/gl2ext.h'
p2240
sbsS'IwChar.h'
p2241
g235
(g1122
g237
Ntp2242
Rp2243
(dp2244
g1126
g1009
sg1127
g1163
sg265
g1020
sbsS's3eSound.h'
p2245
g235
(g1122
g237
Ntp2246
Rp2247
(dp2248
g1126
g1134
sg1127
g1150
sg265
S'd:/marmalade/6.1/s3e/h/s3eSound.h'
p2249
sbsS'IwOptimiseThumb.h'
p2250
g235
(g1122
g237
Ntp2251
Rp2252
(dp2253
g1126
g1009
sg1127
g1163
sg265
g1093
sbsS'exception.h'
p2254
g235
(g1122
g237
Ntp2255
Rp2256
(dp2257
g1126
g1134
sg1127
g1135
sg265
S'd:/marmalade/6.1/s3e/h/std/c++/exception.h'
p2258
sbsS'iwgeom.config.txt'
p2259
g235
(g1122
g237
Ntp2260
Rp2261
(dp2262
g1126
g863
sg1127
g1144
sg265
g917
sbsS'iwgx.mkf'
p2263
g235
(g1122
g237
Ntp2264
Rp2265
(dp2266
g1126
g984
sg1127
g1252
sg265
g982
sbsS'gl.h'
p2267
g235
(g1122
g237
Ntp2268
Rp2269
(dp2270
g1126
g1134
sg1127
g1654
sg265
S'd:/marmalade/6.1/s3e/h/GLES/gl.h'
p2271
sbsVzlib.h
p2272
g235
(g1122
g237
Ntp2273
Rp2274
(dp2275
g1126
g1113
sg1127
g1611
sg265
g1114
sbsS'iwgl.mkf'
p2276
g235
(g1122
g237
Ntp2277
Rp2278
(dp2279
g1126
g817
sg1127
g1233
sg265
g815
sbsS'IwColour.h'
p2280
g235
(g1122
g237
Ntp2281
Rp2282
(dp2283
g1126
g955
sg1127
g1252
sg265
g968
sbsS's3eLibrary.h'
p2284
g235
(g1122
g237
Ntp2285
Rp2286
(dp2287
g1126
g1134
sg1127
g1335
sg265
S'd:/marmalade/6.1/s3e/h/ext/s3eLibrary.h'
p2288
sbsS'types.h'
p2289
g235
(g1122
g237
Ntp2290
Rp2291
(dp2292
g1126
g1134
sg1127
g1266
sg265
S'd:/marmalade/6.1/s3e/h/std/sys/types.h'
p2293
sbsS'ifaddrs.h'
p2294
g235
(g1122
g237
Ntp2295
Rp2296
(dp2297
g1126
g1134
sg1127
g1156
sg265
S'd:/marmalade/6.1/s3e/h/std/ifaddrs.h'
p2298
sbsS'strstream'
p2299
g235
(g1122
g237
Ntp2300
Rp2301
(dp2302
g1126
g1134
sg1127
g1135
sg265
S'd:/marmalade/6.1/s3e/h/std/c++/strstream'
p2303
sbsS'exception'
p2304
g235
(g1122
g237
Ntp2305
Rp2306
(dp2307
g1126
g1134
sg1127
g1135
sg265
S'd:/marmalade/6.1/s3e/h/std/c++/exception'
p2308
sbsS'rlocks.h'
p2309
g235
(g1122
g237
Ntp2310
Rp2311
(dp2312
g1126
g1134
sg1127
g1135
sg265
S'd:/marmalade/6.1/s3e/h/std/c++/rlocks.h'
p2313
sbsS'ioctl.h'
p2314
g235
(g1122
g237
Ntp2315
Rp2316
(dp2317
g1126
g1134
sg1127
g1266
sg265
S'd:/marmalade/6.1/s3e/h/std/sys/ioctl.h'
p2318
sbsS'rope'
p2319
g235
(g1122
g237
Ntp2320
Rp2321
(dp2322
g1126
g1134
sg1127
g1135
sg265
S'd:/marmalade/6.1/s3e/h/std/c++/rope'
p2323
sbsVjinclude.h
p2324
g235
(g1122
g237
Ntp2325
Rp2326
(dp2327
g1126
g771
sg1127
g1208
sg265
g780
sbsS'IwEvent.h'
p2328
g235
(g1122
g237
Ntp2329
Rp2330
(dp2331
g1126
g1009
sg1127
g1163
sg265
g1016
sbsS'IwOptimiseSize.h'
p2332
g235
(g1122
g237
Ntp2333
Rp2334
(dp2335
g1126
g1009
sg1127
g1163
sg265
g1060
sbsS'iwgxfont_public.defines.txt'
p2336
g235
(g1122
g237
Ntp2337
Rp2338
(dp2339
g1126
g841
sg1127
g1128
sg265
g853
sbsS'iconv.h'
p2340
g235
(g1122
g237
Ntp2341
Rp2342
(dp2343
g1126
g1134
sg1127
g1156
sg265
S'd:/marmalade/6.1/s3e/h/std/iconv.h'
p2344
sbsS'sendfile.h'
p2345
g235
(g1122
g237
Ntp2346
Rp2347
(dp2348
g1126
g1134
sg1127
g1266
sg265
S'd:/marmalade/6.1/s3e/h/std/sys/sendfile.h'
p2349
sbsS'IwGeomSphere.h'
p2350
g235
(g1122
g237
Ntp2351
Rp2352
(dp2353
g1126
g863
sg1127
g1144
sg265
g921
sbsVtiniconv.mkf
p2354
g235
(g1122
g237
Ntp2355
Rp2356
(dp2357
g1126
g810
sg1127
g1558
sg265
g808
sbsVjdct.h
p2358
g235
(g1122
g237
Ntp2359
Rp2360
(dp2361
g1126
g771
sg1127
g1208
sg265
g772
sbsS'cwchar'
p2362
g235
(g1122
g237
Ntp2363
Rp2364
(dp2365
g1126
g1134
sg1127
g1135
sg265
S'd:/marmalade/6.1/s3e/h/std/c++/cwchar'
p2366
sbsS's3eConfig.h'
p2367
g235
(g1122
g237
Ntp2368
Rp2369
(dp2370
g1126
g1134
sg1127
g1150
sg265
S'd:/marmalade/6.1/s3e/h/s3eConfig.h'
p2371
sbsS'IwHashString.h'
p2372
g235
(g1122
g237
Ntp2373
Rp2374
(dp2375
g1126
g1009
sg1127
g1163
sg265
g1030
sbsS'stat.h'
p2376
g235
(g1122
g237
Ntp2377
Rp2378
(dp2379
g1126
g1134
sg1127
g1266
sg265
S'd:/marmalade/6.1/s3e/h/std/sys/stat.h'
p2380
sbsS'byteswap.h'
p2381
g235
(g1122
g237
Ntp2382
Rp2383
(dp2384
g1126
g1134
sg1127
g1156
sg265
S'd:/marmalade/6.1/s3e/h/std/byteswap.h'
p2385
sbsS'iwresmanager.mkf'
p2386
g235
(g1122
g237
Ntp2387
Rp2388
(dp2389
g1126
g944
sg1127
g1372
sg265
g942
sbsS'IwUtilInitTerm.h'
p2390
g235
(g1122
g237
Ntp2391
Rp2392
(dp2393
g1126
g1009
sg1127
g1163
sg265
g1014
sbsS'pthread_1.h'
p2394
g235
(g1122
g237
Ntp2395
Rp2396
(dp2397
g1126
g1134
sg1127
g1135
sg265
S'd:/marmalade/6.1/s3e/h/std/c++/pthread.h'
p2398
sbsS'IwMemBucket.h'
p2399
g235
(g1122
g237
Ntp2400
Rp2401
(dp2402
g1126
g1009
sg1127
g1163
sg265
g1087
sbsS'complex'
p2403
g235
(g1122
g237
Ntp2404
Rp2405
(dp2406
g1126
g1134
sg1127
g1135
sg265
S'd:/marmalade/6.1/s3e/h/std/c++/complex'
p2407
sbsS'game.cpp'
p2408
g235
(g1122
g237
Ntp2409
Rp2410
(dp2411
g1126
g752
sg1127
g1510
sg265
g750
sbsS's3e.icf'
p2412
g235
(g1122
g237
Ntp2413
Rp2414
(dp2415
g1126
g1134
sg1127
g1150
sg265
S'd:/marmalade/6.1/s3e/s3e.icf'
p2416
sbsS'IwVariableBitField.h'
p2417
g235
(g1122
g237
Ntp2418
Rp2419
(dp2420
g1126
g1009
sg1127
g1163
sg265
g1091
sbsS'sem.h'
p2421
g235
(g1122
g237
Ntp2422
Rp2423
(dp2424
g1126
g1134
sg1127
g1266
sg265
S'd:/marmalade/6.1/s3e/h/std/sys/sem.h'
p2425
sbsS'IwGxFontState.h'
p2426
g235
(g1122
g237
Ntp2427
Rp2428
(dp2429
g1126
g841
sg1127
g1128
sg265
g849
sbsS'stdio.h'
p2430
g235
(g1122
g237
Ntp2431
Rp2432
(dp2433
g1126
g1134
sg1127
g1156
sg265
S'd:/marmalade/6.1/s3e/h/std/stdio.h'
p2434
sbsVjmemsys.h
p2435
g235
(g1122
g237
Ntp2436
Rp2437
(dp2438
g1126
g771
sg1127
g1208
sg265
g799
sbsS'ios'
p2439
g235
(g1122
g237
Ntp2440
Rp2441
(dp2442
g1126
g1134
sg1127
g1135
sg265
S'd:/marmalade/6.1/s3e/h/std/c++/ios'
p2443
sbsS'stack'
p2444
g235
(g1122
g237
Ntp2445
Rp2446
(dp2447
g1126
g1134
sg1127
g1135
sg265
S'd:/marmalade/6.1/s3e/h/std/c++/stack'
p2448
sbsS'new.h'
p2449
g235
(g1122
g237
Ntp2450
Rp2451
(dp2452
g1126
g1134
sg1127
g1135
sg265
S'd:/marmalade/6.1/s3e/h/std/c++/new.h'
p2453
sbsS's3eEMail.h'
p2454
g235
(g1122
g237
Ntp2455
Rp2456
(dp2457
g1126
g1134
sg1127
g1335
sg265
S'd:/marmalade/6.1/s3e/h/ext/s3eEMail.h'
p2458
sbsS's3eVideo.h'
p2459
g235
(g1122
g237
Ntp2460
Rp2461
(dp2462
g1126
g1134
sg1127
g1150
sg265
S'd:/marmalade/6.1/s3e/h/s3eVideo.h'
p2463
sbsS'IwFile.h'
p2464
g235
(g1122
g237
Ntp2465
Rp2466
(dp2467
g1126
g1009
sg1127
g1163
sg265
g1046
sbsS'pwd.h'
p2468
g235
(g1122
g237
Ntp2469
Rp2470
(dp2471
g1126
g1134
sg1127
g1156
sg265
S'd:/marmalade/6.1/s3e/h/std/pwd.h'
p2472
sbsS'IwClip.h'
p2473
g235
(g1122
g237
Ntp2474
Rp2475
(dp2476
g1126
g955
sg1127
g1252
sg265
g987
sbsS'iwresmanager.config.txt'
p2477
g235
(g1122
g237
Ntp2478
Rp2479
(dp2480
g1126
g931
sg1127
g1372
sg265
g940
sbsS'IwGxShaderTechnique.h'
p2481
g235
(g1122
g237
Ntp2482
Rp2483
(dp2484
g1126
g955
sg1127
g1252
sg265
g972
sbsS'IwCore.h'
p2485
g235
(g1122
g237
Ntp2486
Rp2487
(dp2488
g1126
g1009
sg1127
g1163
sg265
g1074
sbsS'cfloat'
p2489
g235
(g1122
g237
Ntp2490
Rp2491
(dp2492
g1126
g1134
sg1127
g1135
sg265
S'd:/marmalade/6.1/s3e/h/std/c++/cfloat'
p2493
sbsS'IwGeomMat2D.h'
p2494
g235
(g1122
g237
Ntp2495
Rp2496
(dp2497
g1126
g863
sg1127
g1144
sg265
g899
sbsS'IwAllocator.h'
p2498
g235
(g1122
g237
Ntp2499
Rp2500
(dp2501
g1126
g1009
sg1127
g1163
sg265
g1007
sbsS'IwPath.h'
p2502
g235
(g1122
g237
Ntp2503
Rp2504
(dp2505
g1126
g1009
sg1127
g1163
sg265
g1056
sbsS'iwgxfont.mkf'
p2506
g235
(g1122
g237
Ntp2507
Rp2508
(dp2509
g1126
g846
sg1127
g1128
sg265
g844
sbsS'IwTexture.h'
p2510
g235
(g1122
g237
Ntp2511
Rp2512
(dp2513
g1126
g955
sg1127
g1252
sg265
g989
sbsS's3eAccelerometer.h'
p2514
g235
(g1122
g237
Ntp2515
Rp2516
(dp2517
g1126
g1134
sg1127
g1150
sg265
S'd:/marmalade/6.1/s3e/h/s3eAccelerometer.h'
p2518
sbsS'setjmp.h'
p2519
g235
(g1122
g237
Ntp2520
Rp2521
(dp2522
g1126
g1134
sg1127
g1156
sg265
S'd:/marmalade/6.1/s3e/h/std/setjmp.h'
p2523
sbsVpngconf.h
p2524
g235
(g1122
g237
Ntp2525
Rp2526
(dp2527
g1126
g761
sg1127
g1626
sg265
g762
sbsS'IwTextParseable.h'
p2528
g235
(g1122
g237
Ntp2529
Rp2530
(dp2531
g1126
g1009
sg1127
g1163
sg265
g1052
sbsS'istream.h'
p2532
g235
(g1122
g237
Ntp2533
Rp2534
(dp2535
g1126
g1134
sg1127
g1135
sg265
S'd:/marmalade/6.1/s3e/h/std/c++/istream.h'
p2536
sbsS'stdint.h'
p2537
g235
(g1122
g237
Ntp2538
Rp2539
(dp2540
g1126
g1134
sg1127
g1156
sg265
S'd:/marmalade/6.1/s3e/h/std/stdint.h'
p2541
sbsS'semaphore.h'
p2542
g235
(g1122
g237
Ntp2543
Rp2544
(dp2545
g1126
g1134
sg1127
g1156
sg265
S'd:/marmalade/6.1/s3e/h/std/semaphore.h'
p2546
sbsS'ctime'
p2547
g235
(g1122
g237
Ntp2548
Rp2549
(dp2550
g1126
g1134
sg1127
g1135
sg265
S'd:/marmalade/6.1/s3e/h/std/c++/ctime'
p2551
sbsS'sstream'
p2552
g235
(g1122
g237
Ntp2553
Rp2554
(dp2555
g1126
g1134
sg1127
g1135
sg265
S'd:/marmalade/6.1/s3e/h/std/c++/sstream'
p2556
sbsS'IwGeomFBBox.h'
p2557
g235
(g1122
g237
Ntp2558
Rp2559
(dp2560
g1126
g863
sg1127
g1144
sg265
g881
sbsS'IwDebugPrim.h'
p2561
g235
(g1122
g237
Ntp2562
Rp2563
(dp2564
g1126
g955
sg1127
g1252
sg265
g970
sbsS'IwGxFontContainer.h'
p2565
g235
(g1122
g237
Ntp2566
Rp2567
(dp2568
g1126
g841
sg1127
g1128
sg265
g851
sbsS'IwGeomSVec3.h'
p2569
g235
(g1122
g237
Ntp2570
Rp2571
(dp2572
g1126
g863
sg1127
g1144
sg265
g903
sbsS'cassert'
p2573
g235
(g1122
g237
Ntp2574
Rp2575
(dp2576
g1126
g1134
sg1127
g1135
sg265
S'd:/marmalade/6.1/s3e/h/std/c++/cassert'
p2577
sbsS'IwGeomFVec3.h'
p2578
g235
(g1122
g237
Ntp2579
Rp2580
(dp2581
g1126
g863
sg1127
g1144
sg265
g913
sbsS'streambuf'
p2582
g235
(g1122
g237
Ntp2583
Rp2584
(dp2585
g1126
g1134
sg1127
g1135
sg265
S'd:/marmalade/6.1/s3e/h/std/c++/streambuf'
p2586
sbsS's3eMetrics.h'
p2587
g235
(g1122
g237
Ntp2588
Rp2589
(dp2590
g1126
g1134
sg1127
g1335
sg265
S'd:/marmalade/6.1/s3e/h/ext/s3eMetrics.h'
p2591
sbsS'IwGxFont.h'
p2592
g235
(g1122
g237
Ntp2593
Rp2594
(dp2595
g1126
g841
sg1127
g1128
sg265
g842
sbsS's3eSecureStorage.h'
p2596
g235
(g1122
g237
Ntp2597
Rp2598
(dp2599
g1126
g1134
sg1127
g1150
sg265
S'd:/marmalade/6.1/s3e/h/s3eSecureStorage.h'
p2600
sbsS'string.h'
p2601
g235
(g1122
g237
Ntp2602
Rp2603
(dp2604
g1126
g1134
sg1127
g1156
sg265
S'd:/marmalade/6.1/s3e/h/std/string.h'
p2605
sbsS'IwResource.h'
p2606
g235
(g1122
g237
Ntp2607
Rp2608
(dp2609
g1126
g1009
sg1127
g1163
sg265
g1085
sbsVlibjpeg.mkf
p2610
g235
(g1122
g237
Ntp2611
Rp2612
(dp2613
g1126
g786
sg1127
g1208
sg265
g784
sbsS'IwGxDebug.h'
p2614
g235
(g1122
g237
Ntp2615
Rp2616
(dp2617
g1126
g955
sg1127
g1252
sg265
g991
sbsS'pthread_types.h'
p2618
g235
(g1122
g237
Ntp2619
Rp2620
(dp2621
g1126
g1134
sg1127
g1156
sg265
S'd:/marmalade/6.1/s3e/h/std/pthread_types.h'
p2622
sbsS'iomanip.h'
p2623
g235
(g1122
g237
Ntp2624
Rp2625
(dp2626
g1126
g1134
sg1127
g1135
sg265
S'd:/marmalade/6.1/s3e/h/std/c++/iomanip.h'
p2627
sbsS'IwKeymap.h'
p2628
g235
(g1122
g237
Ntp2629
Rp2630
(dp2631
g1126
g1009
sg1127
g1163
sg265
g1064
sbsS'IwDebug.h'
p2632
g235
(g1122
g237
Ntp2633
Rp2634
(dp2635
g1126
g1009
sg1127
g1163
sg265
g1103
sbsS's3eIOSBackgroundAudio.h'
p2636
g235
(g1122
g237
Ntp2637
Rp2638
(dp2639
g1126
g1134
sg1127
g1335
sg265
S'd:/marmalade/6.1/s3e/h/ext/s3eIOSBackgroundAudio.h'
p2640
sbsS'IwGeomMenu.h'
p2641
g235
(g1122
g237
Ntp2642
Rp2643
(dp2644
g1126
g863
sg1127
g1144
sg265
g923
sbsS'IwDivTable.h'
p2645
g235
(g1122
g237
Ntp2646
Rp2647
(dp2648
g1126
g1009
sg1127
g1163
sg265
g1050
sbsS'ctype.h'
p2649
g235
(g1122
g237
Ntp2650
Rp2651
(dp2652
g1126
g1134
sg1127
g1156
sg265
S'd:/marmalade/6.1/s3e/h/std/ctype.h'
p2653
sbsS'IwGeomMat.h'
p2654
g235
(g1122
g237
Ntp2655
Rp2656
(dp2657
g1126
g863
sg1127
g1144
sg265
g885
sbsS'IwResGroup.h'
p2658
g235
(g1122
g237
Ntp2659
Rp2660
(dp2661
g1126
g931
sg1127
g1372
sg265
g947
sbsS'signal_1.h'
p2662
g235
(g1122
g237
Ntp2663
Rp2664
(dp2665
g1126
g1134
sg1127
g1266
sg265
S'd:/marmalade/6.1/s3e/h/std/sys/signal.h'
p2666
sbsS'functional'
p2667
g235
(g1122
g237
Ntp2668
Rp2669
(dp2670
g1126
g1134
sg1127
g1135
sg265
S'd:/marmalade/6.1/s3e/h/std/c++/functional'
p2671
sbsS'shm.h'
p2672
g235
(g1122
g237
Ntp2673
Rp2674
(dp2675
g1126
g1134
sg1127
g1266
sg265
S'd:/marmalade/6.1/s3e/h/std/sys/shm.h'
p2676
sbsVjpegint.h
p2677
g235
(g1122
g237
Ntp2678
Rp2679
(dp2680
g1126
g771
sg1127
g1208
sg265
g769
sbsS'prctl.h'
p2681
g235
(g1122
g237
Ntp2682
Rp2683
(dp2684
g1126
g1134
sg1127
g1266
sg265
S'd:/marmalade/6.1/s3e/h/std/sys/prctl.h'
p2685
sbsS'un.h'
p2686
g235
(g1122
g237
Ntp2687
Rp2688
(dp2689
g1126
g1134
sg1127
g1266
sg265
S'd:/marmalade/6.1/s3e/h/std/sys/un.h'
p2690
sbsS'utility'
p2691
g235
(g1122
g237
Ntp2692
Rp2693
(dp2694
g1126
g1134
sg1127
g1135
sg265
S'd:/marmalade/6.1/s3e/h/std/c++/utility'
p2695
sbsS'IwGeomLegacy.h'
p2696
g235
(g1122
g237
Ntp2697
Rp2698
(dp2699
g1126
g863
sg1127
g1144
sg265
g877
sbsS'IwTPage.h'
p2700
g235
(g1122
g237
Ntp2701
Rp2702
(dp2703
g1126
g955
sg1127
g1252
sg265
g958
sbsS'IwResSerialise.h'
p2704
g235
(g1122
g237
Ntp2705
Rp2706
(dp2707
g1126
g931
sg1127
g1372
sg265
g945
sbsS's3eCrypto.h'
p2708
g235
(g1122
g237
Ntp2709
Rp2710
(dp2711
g1126
g1134
sg1127
g1150
sg265
S'd:/marmalade/6.1/s3e/h/s3eCrypto.h'
p2712
sbsS's3eKeyboard.h'
p2713
g235
(g1122
g237
Ntp2714
Rp2715
(dp2716
g1126
g1134
sg1127
g1150
sg265
S'd:/marmalade/6.1/s3e/h/s3eKeyboard.h'
p2717
sbsS'fcntl.h'
p2718
g235
(g1122
g237
Ntp2719
Rp2720
(dp2721
g1126
g1134
sg1127
g1156
sg265
S'd:/marmalade/6.1/s3e/h/std/fcntl.h'
p2722
sbsS'memory.h'
p2723
g235
(g1122
g237
Ntp2724
Rp2725
(dp2726
g1126
g1134
sg1127
g1156
sg265
S'd:/marmalade/6.1/s3e/h/std/memory.h'
p2727
sbsS'pthread.h'
p2728
g235
(g1122
g237
Ntp2729
Rp2730
(dp2731
g1126
g1134
sg1127
g1156
sg265
S'd:/marmalade/6.1/s3e/h/std/pthread.h'
p2732
sbsS'IwGeomIntersect.h'
p2733
g235
(g1122
g237
Ntp2734
Rp2735
(dp2736
g1126
g863
sg1127
g1144
sg265
g875
sbsS'algorithm'
p2737
g235
(g1122
g237
Ntp2738
Rp2739
(dp2740
g1126
g1134
sg1127
g1135
sg265
S'd:/marmalade/6.1/s3e/h/std/c++/algorithm'
p2741
sbsS'egl_1.h'
p2742
g235
(g1122
g237
Ntp2743
Rp2744
(dp2745
g1126
g1134
sg1127
g1654
sg265
S'd:/marmalade/6.1/s3e/h/GLES/egl.h'
p2746
sbsS'ostream.h'
p2747
g235
(g1122
g237
Ntp2748
Rp2749
(dp2750
g1126
g1134
sg1127
g1135
sg265
S'd:/marmalade/6.1/s3e/h/std/c++/ostream.h'
p2751
sbsS'stl_user_config.h'
p2752
g235
(g1122
g237
Ntp2753
Rp2754
(dp2755
g1126
g1134
sg1127
g1135
sg265
S'd:/marmalade/6.1/s3e/h/std/c++/stl_user_config.h'
p2756
sbsS'IwProfileMenu.h'
p2757
g235
(g1122
g237
Ntp2758
Rp2759
(dp2760
g1126
g1009
sg1127
g1163
sg265
g1024
sbsS'MarmaladeVersion.h'
p2761
g235
(g1122
g237
Ntp2762
Rp2763
(dp2764
g1126
g1134
sg1127
g1150
sg265
S'd:/marmalade/6.1/s3e/h/MarmaladeVersion.h'
p2765
sbsS'ios.h'
p2766
g235
(g1122
g237
Ntp2767
Rp2768
(dp2769
g1126
g1134
sg1127
g1135
sg265
S'd:/marmalade/6.1/s3e/h/std/c++/ios.h'
p2770
sbsS'IwImageHelper.h'
p2771
g235
(g1122
g237
Ntp2772
Rp2773
(dp2774
g1126
g1009
sg1127
g1163
sg265
g1101
sbsS'hash_set'
p2775
g235
(g1122
g237
Ntp2776
Rp2777
(dp2778
g1126
g1134
sg1127
g1135
sg265
S'd:/marmalade/6.1/s3e/h/std/c++/hash_set'
p2779
sbsS'IwGeomFQuat.h'
p2780
g235
(g1122
g237
Ntp2781
Rp2782
(dp2783
g1126
g863
sg1127
g1144
sg265
g905
sbsVjmorecfg.h
p2784
g235
(g1122
g237
Ntp2785
Rp2786
(dp2787
g1126
g771
sg1127
g1208
sg265
g793
sbsS'eglplatform.h'
p2788
g235
(g1122
g237
Ntp2789
Rp2790
(dp2791
g1126
g1134
sg1127
g1443
sg265
S'd:/marmalade/6.1/s3e/h/EGL/eglplatform.h'
p2792
sbsS'stdbool.h'
p2793
g235
(g1122
g237
Ntp2794
Rp2795
(dp2796
g1126
g1134
sg1127
g1156
sg265
S'd:/marmalade/6.1/s3e/h/std/stdbool.h'
p2797
sbsS'math_gcc.h'
p2798
g235
(g1122
g237
Ntp2799
Rp2800
(dp2801
g1126
g1134
sg1127
g1156
sg265
S'd:/marmalade/6.1/s3e/h/std/math_gcc.h'
p2802
sbsS's3eMemory.h'
p2803
g235
(g1122
g237
Ntp2804
Rp2805
(dp2806
g1126
g1134
sg1127
g1150
sg265
S'd:/marmalade/6.1/s3e/h/s3eMemory.h'
p2807
sbsS'strings.h'
p2808
g235
(g1122
g237
Ntp2809
Rp2810
(dp2811
g1126
g1134
sg1127
g1156
sg265
S'd:/marmalade/6.1/s3e/h/std/strings.h'
p2812
sbsS's3eFile.h'
p2813
g235
(g1122
g237
Ntp2814
Rp2815
(dp2816
g1126
g1134
sg1127
g1150
sg265
S'd:/marmalade/6.1/s3e/h/s3eFile.h'
p2817
sbsS'IwGxTypes.h'
p2818
g235
(g1122
g237
Ntp2819
Rp2820
(dp2821
g1126
g955
sg1127
g1252
sg265
g995
sbsS'cerrno'
p2822
g235
(g1122
g237
Ntp2823
Rp2824
(dp2825
g1126
g1134
sg1127
g1135
sg265
S'd:/marmalade/6.1/s3e/h/std/c++/cerrno'
p2826
sbsS'resource.h'
p2827
g235
(g1122
g237
Ntp2828
Rp2829
(dp2830
g1126
g1134
sg1127
g1266
sg265
S'd:/marmalade/6.1/s3e/h/std/sys/resource.h'
p2831
sbsS'clocale'
p2832
g235
(g1122
g237
Ntp2833
Rp2834
(dp2835
g1126
g1134
sg1127
g1135
sg265
S'd:/marmalade/6.1/s3e/h/std/c++/clocale'
p2836
sbsS'csetjmp'
p2837
g235
(g1122
g237
Ntp2838
Rp2839
(dp2840
g1126
g1134
sg1127
g1135
sg265
S'd:/marmalade/6.1/s3e/h/std/c++/csetjmp'
p2841
sbsS'netdb.h'
p2842
g235
(g1122
g237
Ntp2843
Rp2844
(dp2845
g1126
g1134
sg1127
g1156
sg265
S'd:/marmalade/6.1/s3e/h/std/netdb.h'
p2846
sbsS's3eAndroidJNI.h'
p2847
g235
(g1122
g237
Ntp2848
Rp2849
(dp2850
g1126
g1134
sg1127
g1335
sg265
S'd:/marmalade/6.1/s3e/h/ext/s3eAndroidJNI.h'
p2851
sbsS'stdexcept'
p2852
g235
(g1122
g237
Ntp2853
Rp2854
(dp2855
g1126
g1134
sg1127
g1135
sg265
S'd:/marmalade/6.1/s3e/h/std/c++/stdexcept'
p2856
sbsS'math.h'
p2857
g235
(g1122
g237
Ntp2858
Rp2859
(dp2860
g1126
g1134
sg1127
g1156
sg265
S'd:/marmalade/6.1/s3e/h/std/math.h'
p2861
sbsS'cmath'
p2862
g235
(g1122
g237
Ntp2863
Rp2864
(dp2865
g1126
g1134
sg1127
g1135
sg265
S'd:/marmalade/6.1/s3e/h/std/c++/cmath'
p2866
sbsS'uio.h'
p2867
g235
(g1122
g237
Ntp2868
Rp2869
(dp2870
g1126
g1134
sg1127
g1266
sg265
S'd:/marmalade/6.1/s3e/h/std/sys/uio.h'
p2871
sbsS'IwUncopyable.h'
p2872
g235
(g1122
g237
Ntp2873
Rp2874
(dp2875
g1126
g1009
sg1127
g1163
sg265
g1062
sbssS'tests'
p2876
(lp2877
sS'project_name'
p2878
g243
sS'root_file'
p2879
g104
sS'current_root'
p2880
S'c:/Users/dreambit/Documents/memorygame'
p2881
sS'dependencies'
p2882
(lp2883
sS'include_paths'
p2884
(lp2885
S'c:/Users/dreambit/Documents/memorygame/h'
p2886
aVc:/users/dreambit/appdata/roaming/marmalade/packages/6.1.1/libjpeg_6b/h
p2887
aVc:/users/dreambit/appdata/roaming/marmalade/packages/6.1.1/zlib_1.2.4/h
p2888
aVc:/users/dreambit/appdata/roaming/marmalade/packages/6.1.1/libpng_1.2.34/h
p2889
aS'd:/marmalade/6.1/modules/iwutil/h'
p2890
aS'd:/marmalade/6.1/modules/iwgeom/h'
p2891
aS'd:/marmalade/6.1/modules/iwresmanager/h'
p2892
aS'd:/marmalade/6.1/modules/iwgl/h'
p2893
aS'd:/marmalade/6.1/modules/iwgx/h'
p2894
aVc:/users/dreambit/appdata/roaming/marmalade/packages/6.1.1/tiniconv_1.0.1/h
p2895
aS'd:/marmalade/6.1/modules/iwgxfont/h'
p2896
aS'd:/marmalade/6.1/modules/iw2d/h'
p2897
aS'd:/marmalade/6.1/s3e/h'
p2898
aS'd:/marmalade/6.1/s3e/h/ext'
p2899
aS'd:/marmalade/6.1/s3e/h/std'
p2900
aS'd:/marmalade/6.1/s3e/h/std/c++'
p2901
aS'd:/marmalade/6.1/s3e/h/ext_legacy'
p2902
aS'd:/marmalade/6.1/s3e/h/legacy'
p2903
asS'weak_frameworks'
p2904
(lp2905
sS'extprojects'
p2906
(dp2907
sg479
(dp2908
g473
(lp2909
(S'c:/Users/dreambit/Documents/memorygame\\data'
p2910
S'.'
p2911
I0
tp2912
assS'macro_types'
p2913
(dp2914
g424
I1
sg425
I0
sg426
I0
sg427
I0
sg428
I0
sg429
I0
sg430
I0
sg432
I0
sg433
I0
sg434
I0
sg435
I0
sg437
I0
sg439
I0
sg440
I0
sg441
I0
sg442
I0
sg443
I1
sg444
I0
sg445
I0
sg446
I0
sg447
I01
sg448
I1
sg449
I0
sg450
I0
sg451
I0
ssS'commands'
p2915
(lp2916
sg481
(g741
S'VC10'
p2917
S'X86ARM'
p2918
tp2919
sS'build_libs'
p2920
(dp2921
sS'frameworks'
p2922
(lp2923
sS'environ'
p2924
(dp2925
sS'target_name_debug'
p2926
g243
sS'builders'
p2927
(dp2928
S'.S'
p2929
(dp2930
S'rvct'
p2931
(lp2932
S'.obj'
p2933
aS'echo ARM Assembling(RVCT) ${SOURCE}...'
p2934
aS'd:/marmalade/6.1/s3e\\rvct\\bin\\armasm -o ${TARGET} ${SOURCE}'
p2935
asg344
(lp2936
g2933
aS'echo ARM Assembling(GCC) ${SOURCE}...'
p2937
aS'd:/marmalade/6.1/s3e\\gcc\\bin\\arm-none-eabi-gcc -c -o ${TARGET} ${SOURCE}'
p2938
asS'ppu'
p2939
(lp2940
S'.a'
p2941
aS'echo PPU Assembling(SNC) ${SOURCE}...'
p2942
aS'd:/marmalade/6.1/s3e\\rvct\\bin\\armasm -o ${TARGET} ${SOURCE}'
p2943
assS'.s'
p2944
g2930
sS'.vp'
p2945
(lp2946
NaS'"D:/Marmalade/6.1/s3e/python/python.exe" "d:/marmalade/6.1/modules/iwgx/tools/compile_shaders.py" ${SOURCE}'
p2947
assg483
g0
sbtp2948
.